(imatplotlib.font_manager
FontManager
p1
(dp2
S'afm_lookup_cache'
p3
(dp4
sS'ttflist'
p5
(lp6
ccopy_reg
_reconstructor
p7
(cmatplotlib.font_manager
FontEntry
p8
c__builtin__
object
p9
NtRp10
(dp11
S'style'
p12
S'normal'
p13
sS'name'
p14
S'cmr10'
p15
sS'weight'
p16
I400
sS'stretch'
p17
g13
sS'variant'
p18
g13
sS'fname'
p19
S'C:\\PROGRA~1\\QGISPI~1\\apps\\Python27\\lib\\site-packages\\matplotlib-1.3.1-py2.7-win-amd64.egg\\matplotlib\\mpl-data\\fonts\\ttf\\cmr10.ttf'
p20
sS'size'
p21
S'scalable'
p22
sbag7
(g8
g9
NtRp23
(dp24
g12
g13
sg14
S'STIXSizeTwoSym'
p25
sg16
I400
sg17
g13
sg18
g13
sg19
S'C:\\PROGRA~1\\QGISPI~1\\apps\\Python27\\lib\\site-packages\\matplotlib-1.3.1-py2.7-win-amd64.egg\\matplotlib\\mpl-data\\fonts\\ttf\\STIXSizTwoSymReg.ttf'
p26
sg21
g22
sbag7
(g8
g9
NtRp27
(dp28
g12
g13
sg14
S'STIXSizeOneSym'
p29
sg16
I400
sg17
g13
sg18
g13
sg19
S'C:\\PROGRA~1\\QGISPI~1\\apps\\Python27\\lib\\site-packages\\matplotlib-1.3.1-py2.7-win-amd64.egg\\matplotlib\\mpl-data\\fonts\\ttf\\STIXSizOneSymReg.ttf'
p30
sg21
g22
sbag7
(g8
g9
NtRp31
(dp32
g12
g13
sg14
S'STIXGeneral'
p33
sg16
I700
sg17
g13
sg18
g13
sg19
S'C:\\PROGRA~1\\QGISPI~1\\apps\\Python27\\lib\\site-packages\\matplotlib-1.3.1-py2.7-win-amd64.egg\\matplotlib\\mpl-data\\fonts\\ttf\\STIXGeneralBol.ttf'
p34
sg21
g22
sbag7
(g8
g9
NtRp35
(dp36
g12
g13
sg14
S'cmtt10'
p37
sg16
I400
sg17
g13
sg18
g13
sg19
S'C:\\PROGRA~1\\QGISPI~1\\apps\\Python27\\lib\\site-packages\\matplotlib-1.3.1-py2.7-win-amd64.egg\\matplotlib\\mpl-data\\fonts\\ttf\\cmtt10.ttf'
p38
sg21
g22
sbag7
(g8
g9
NtRp39
(dp40
g12
S'oblique'
p41
sg14
S'Bitstream Vera Sans Mono'
p42
sg16
I400
sg17
g13
sg18
g13
sg19
S'C:\\PROGRA~1\\QGISPI~1\\apps\\Python27\\lib\\site-packages\\matplotlib-1.3.1-py2.7-win-amd64.egg\\matplotlib\\mpl-data\\fonts\\ttf\\VeraMoIt.ttf'
p43
sg21
g22
sbag7
(g8
g9
NtRp44
(dp45
g12
g13
sg14
S'STIXSizeThreeSym'
p46
sg16
I400
sg17
g13
sg18
g13
sg19
S'C:\\PROGRA~1\\QGISPI~1\\apps\\Python27\\lib\\site-packages\\matplotlib-1.3.1-py2.7-win-amd64.egg\\matplotlib\\mpl-data\\fonts\\ttf\\STIXSizThreeSymReg.ttf'
p47
sg21
g22
sbag7
(g8
g9
NtRp48
(dp49
g12
S'italic'
p50
sg14
S'STIXNonUnicode'
p51
sg16
I400
sg17
g13
sg18
g13
sg19
S'C:\\PROGRA~1\\QGISPI~1\\apps\\Python27\\lib\\site-packages\\matplotlib-1.3.1-py2.7-win-amd64.egg\\matplotlib\\mpl-data\\fonts\\ttf\\STIXNonUniIta.ttf'
p52
sg21
g22
sbag7
(g8
g9
NtRp53
(dp54
g12
g13
sg14
S'STIXSizeFourSym'
p55
sg16
I700
sg17
g13
sg18
g13
sg19
S'C:\\PROGRA~1\\QGISPI~1\\apps\\Python27\\lib\\site-packages\\matplotlib-1.3.1-py2.7-win-amd64.egg\\matplotlib\\mpl-data\\fonts\\ttf\\STIXSizFourSymBol.ttf'
p56
sg21
g22
sbag7
(g8
g9
NtRp57
(dp58
g12
g13
sg14
S'Bitstream Vera Sans Mono'
p59
sg16
I700
sg17
g13
sg18
g13
sg19
S'C:\\PROGRA~1\\QGISPI~1\\apps\\Python27\\lib\\site-packages\\matplotlib-1.3.1-py2.7-win-amd64.egg\\matplotlib\\mpl-data\\fonts\\ttf\\VeraMoBd.ttf'
p60
sg21
g22
sbag7
(g8
g9
NtRp61
(dp62
g12
g13
sg14
S'Bitstream Vera Sans'
p63
sg16
I700
sg17
g13
sg18
g13
sg19
S'C:\\PROGRA~1\\QGISPI~1\\apps\\Python27\\lib\\site-packages\\matplotlib-1.3.1-py2.7-win-amd64.egg\\matplotlib\\mpl-data\\fonts\\ttf\\VeraBd.ttf'
p64
sg21
g22
sbag7
(g8
g9
NtRp65
(dp66
g12
g13
sg14
S'Bitstream Vera Serif'
p67
sg16
I400
sg17
g13
sg18
g13
sg19
S'C:\\PROGRA~1\\QGISPI~1\\apps\\Python27\\lib\\site-packages\\matplotlib-1.3.1-py2.7-win-amd64.egg\\matplotlib\\mpl-data\\fonts\\ttf\\VeraSe.ttf'
p68
sg21
g22
sbag7
(g8
g9
NtRp69
(dp70
g12
g13
sg14
S'Bitstream Vera Sans Mono'
p71
sg16
I400
sg17
g13
sg18
g13
sg19
S'C:\\PROGRA~1\\QGISPI~1\\apps\\Python27\\lib\\site-packages\\matplotlib-1.3.1-py2.7-win-amd64.egg\\matplotlib\\mpl-data\\fonts\\ttf\\VeraMono.ttf'
p72
sg21
g22
sbag7
(g8
g9
NtRp73
(dp74
g12
g13
sg14
S'STIXSizeThreeSym'
p75
sg16
I700
sg17
g13
sg18
g13
sg19
S'C:\\PROGRA~1\\QGISPI~1\\apps\\Python27\\lib\\site-packages\\matplotlib-1.3.1-py2.7-win-amd64.egg\\matplotlib\\mpl-data\\fonts\\ttf\\STIXSizThreeSymBol.ttf'
p76
sg21
g22
sbag7
(g8
g9
NtRp77
(dp78
g12
g41
sg14
S'Bitstream Vera Sans'
p79
sg16
I400
sg17
g13
sg18
g13
sg19
S'C:\\PROGRA~1\\QGISPI~1\\apps\\Python27\\lib\\site-packages\\matplotlib-1.3.1-py2.7-win-amd64.egg\\matplotlib\\mpl-data\\fonts\\ttf\\VeraIt.ttf'
p80
sg21
g22
sbag7
(g8
g9
NtRp81
(dp82
g12
g13
sg14
S'STIXSizeOneSym'
p83
sg16
I700
sg17
g13
sg18
g13
sg19
S'C:\\PROGRA~1\\QGISPI~1\\apps\\Python27\\lib\\site-packages\\matplotlib-1.3.1-py2.7-win-amd64.egg\\matplotlib\\mpl-data\\fonts\\ttf\\STIXSizOneSymBol.ttf'
p84
sg21
g22
sbag7
(g8
g9
NtRp85
(dp86
g12
g13
sg14
S'STIXNonUnicode'
p87
sg16
I400
sg17
g13
sg18
g13
sg19
S'C:\\PROGRA~1\\QGISPI~1\\apps\\Python27\\lib\\site-packages\\matplotlib-1.3.1-py2.7-win-amd64.egg\\matplotlib\\mpl-data\\fonts\\ttf\\STIXNonUni.ttf'
p88
sg21
g22
sbag7
(g8
g9
NtRp89
(dp90
g12
g13
sg14
S'Bitstream Vera Serif'
p91
sg16
I700
sg17
g13
sg18
g13
sg19
S'C:\\PROGRA~1\\QGISPI~1\\apps\\Python27\\lib\\site-packages\\matplotlib-1.3.1-py2.7-win-amd64.egg\\matplotlib\\mpl-data\\fonts\\ttf\\VeraSeBd.ttf'
p92
sg21
g22
sbag7
(g8
g9
NtRp93
(dp94
g12
g13
sg14
S'Bitstream Vera Sans'
p95
sg16
I400
sg17
g13
sg18
g13
sg19
S'C:\\PROGRA~1\\QGISPI~1\\apps\\Python27\\lib\\site-packages\\matplotlib-1.3.1-py2.7-win-amd64.egg\\matplotlib\\mpl-data\\fonts\\ttf\\Vera.ttf'
p96
sg21
g22
sbag7
(g8
g9
NtRp97
(dp98
g12
g13
sg14
S'STIXSizeTwoSym'
p99
sg16
I700
sg17
g13
sg18
g13
sg19
S'C:\\PROGRA~1\\QGISPI~1\\apps\\Python27\\lib\\site-packages\\matplotlib-1.3.1-py2.7-win-amd64.egg\\matplotlib\\mpl-data\\fonts\\ttf\\STIXSizTwoSymBol.ttf'
p100
sg21
g22
sbag7
(g8
g9
NtRp101
(dp102
g12
g13
sg14
S'cmex10'
p103
sg16
I400
sg17
g13
sg18
g13
sg19
S'C:\\PROGRA~1\\QGISPI~1\\apps\\Python27\\lib\\site-packages\\matplotlib-1.3.1-py2.7-win-amd64.egg\\matplotlib\\mpl-data\\fonts\\ttf\\cmex10.ttf'
p104
sg21
g22
sbag7
(g8
g9
NtRp105
(dp106
g12
g41
sg14
S'Bitstream Vera Sans'
p107
sg16
I700
sg17
g13
sg18
g13
sg19
S'C:\\PROGRA~1\\QGISPI~1\\apps\\Python27\\lib\\site-packages\\matplotlib-1.3.1-py2.7-win-amd64.egg\\matplotlib\\mpl-data\\fonts\\ttf\\VeraBI.ttf'
p108
sg21
g22
sbag7
(g8
g9
NtRp109
(dp110
g12
g13
sg14
S'cmmi10'
p111
sg16
I400
sg17
g13
sg18
g13
sg19
S'C:\\PROGRA~1\\QGISPI~1\\apps\\Python27\\lib\\site-packages\\matplotlib-1.3.1-py2.7-win-amd64.egg\\matplotlib\\mpl-data\\fonts\\ttf\\cmmi10.ttf'
p112
sg21
g22
sbag7
(g8
g9
NtRp113
(dp114
g12
g13
sg14
S'cmb10'
p115
sg16
I400
sg17
g13
sg18
g13
sg19
S'C:\\PROGRA~1\\QGISPI~1\\apps\\Python27\\lib\\site-packages\\matplotlib-1.3.1-py2.7-win-amd64.egg\\matplotlib\\mpl-data\\fonts\\ttf\\cmb10.ttf'
p116
sg21
g22
sbag7
(g8
g9
NtRp117
(dp118
g12
g13
sg14
S'cmss10'
p119
sg16
I400
sg17
g13
sg18
g13
sg19
S'C:\\PROGRA~1\\QGISPI~1\\apps\\Python27\\lib\\site-packages\\matplotlib-1.3.1-py2.7-win-amd64.egg\\matplotlib\\mpl-data\\fonts\\ttf\\cmss10.ttf'
p120
sg21
g22
sbag7
(g8
g9
NtRp121
(dp122
g12
g13
sg14
S'STIXNonUnicode'
p123
sg16
I700
sg17
g13
sg18
g13
sg19
S'C:\\PROGRA~1\\QGISPI~1\\apps\\Python27\\lib\\site-packages\\matplotlib-1.3.1-py2.7-win-amd64.egg\\matplotlib\\mpl-data\\fonts\\ttf\\STIXNonUniBol.ttf'
p124
sg21
g22
sbag7
(g8
g9
NtRp125
(dp126
g12
g13
sg14
S'cmsy10'
p127
sg16
I400
sg17
g13
sg18
g13
sg19
S'C:\\PROGRA~1\\QGISPI~1\\apps\\Python27\\lib\\site-packages\\matplotlib-1.3.1-py2.7-win-amd64.egg\\matplotlib\\mpl-data\\fonts\\ttf\\cmsy10.ttf'
p128
sg21
g22
sbag7
(g8
g9
NtRp129
(dp130
g12
g50
sg14
S'STIXGeneral'
p131
sg16
I400
sg17
g13
sg18
g13
sg19
S'C:\\PROGRA~1\\QGISPI~1\\apps\\Python27\\lib\\site-packages\\matplotlib-1.3.1-py2.7-win-amd64.egg\\matplotlib\\mpl-data\\fonts\\ttf\\STIXGeneralItalic.ttf'
p132
sg21
g22
sbag7
(g8
g9
NtRp133
(dp134
g12
g13
sg14
S'STIXGeneral'
p135
sg16
I400
sg17
g13
sg18
g13
sg19
S'C:\\PROGRA~1\\QGISPI~1\\apps\\Python27\\lib\\site-packages\\matplotlib-1.3.1-py2.7-win-amd64.egg\\matplotlib\\mpl-data\\fonts\\ttf\\STIXGeneral.ttf'
p136
sg21
g22
sbag7
(g8
g9
NtRp137
(dp138
g12
g13
sg14
S'STIXSizeFiveSym'
p139
sg16
I400
sg17
g13
sg18
g13
sg19
S'C:\\PROGRA~1\\QGISPI~1\\apps\\Python27\\lib\\site-packages\\matplotlib-1.3.1-py2.7-win-amd64.egg\\matplotlib\\mpl-data\\fonts\\ttf\\STIXSizFiveSymReg.ttf'
p140
sg21
g22
sbag7
(g8
g9
NtRp141
(dp142
g12
g41
sg14
S'Bitstream Vera Sans Mono'
p143
sg16
I700
sg17
g13
sg18
g13
sg19
S'C:\\PROGRA~1\\QGISPI~1\\apps\\Python27\\lib\\site-packages\\matplotlib-1.3.1-py2.7-win-amd64.egg\\matplotlib\\mpl-data\\fonts\\ttf\\VeraMoBI.ttf'
p144
sg21
g22
sbag7
(g8
g9
NtRp145
(dp146
g12
g13
sg14
S'STIXSizeFourSym'
p147
sg16
I400
sg17
g13
sg18
g13
sg19
S'C:\\PROGRA~1\\QGISPI~1\\apps\\Python27\\lib\\site-packages\\matplotlib-1.3.1-py2.7-win-amd64.egg\\matplotlib\\mpl-data\\fonts\\ttf\\STIXSizFourSymReg.ttf'
p148
sg21
g22
sbag7
(g8
g9
NtRp149
(dp150
g12
g50
sg14
S'STIXGeneral'
p151
sg16
I700
sg17
g13
sg18
g13
sg19
S'C:\\PROGRA~1\\QGISPI~1\\apps\\Python27\\lib\\site-packages\\matplotlib-1.3.1-py2.7-win-amd64.egg\\matplotlib\\mpl-data\\fonts\\ttf\\STIXGeneralBolIta.ttf'
p152
sg21
g22
sbag7
(g8
g9
NtRp153
(dp154
g12
g50
sg14
S'STIXNonUnicode'
p155
sg16
I700
sg17
g13
sg18
g13
sg19
S'C:\\PROGRA~1\\QGISPI~1\\apps\\Python27\\lib\\site-packages\\matplotlib-1.3.1-py2.7-win-amd64.egg\\matplotlib\\mpl-data\\fonts\\ttf\\STIXNonUniBolIta.ttf'
p156
sg21
g22
sbag7
(g8
g9
NtRp157
(dp158
g12
g50
sg14
S'High Tower Text'
p159
sg16
I400
sg17
g13
sg18
g13
sg19
S'C:\\WINDOWS\\Fonts\\HTOWERTI.TTF'
p160
sg21
g22
sbag7
(g8
g9
NtRp161
(dp162
g12
g13
sg14
S'Footlight MT Light'
p163
sg16
I200
sg17
g13
sg18
g13
sg19
S'c:\\windows\\fonts\\ftltlt.ttf'
p164
sg21
g22
sbag7
(g8
g9
NtRp165
(dp166
g12
g50
sg14
S'Comic Sans MS'
p167
sg16
I400
sg17
g13
sg18
g13
sg19
S'C:\\WINDOWS\\Fonts\\comici.ttf'
p168
sg21
g22
sbag7
(g8
g9
NtRp169
(dp170
g12
g13
sg14
S'Cambria'
p171
sg16
I700
sg17
g13
sg18
g13
sg19
S'c:\\windows\\fonts\\cambriab.ttf'
p172
sg21
g22
sbag7
(g8
g9
NtRp173
(dp174
g12
g50
sg14
S'Book Antiqua'
p175
sg16
I400
sg17
g13
sg18
g13
sg19
S'C:\\WINDOWS\\Fonts\\ANTQUAI.TTF'
p176
sg21
g22
sbag7
(g8
g9
NtRp177
(dp178
g12
g13
sg14
S'Trebuchet MS'
p179
sg16
I700
sg17
g13
sg18
g13
sg19
S'c:\\windows\\fonts\\trebucbd.ttf'
p180
sg21
g22
sbag7
(g8
g9
NtRp181
(dp182
g12
g13
sg14
S'Perpetua Titling MT'
p183
sg16
I200
sg17
g13
sg18
g13
sg19
S'C:\\WINDOWS\\Fonts\\PERTILI.TTF'
p184
sg21
g22
sbag7
(g8
g9
NtRp185
(dp186
g12
g50
sg14
S'Bell MT'
p187
sg16
I400
sg17
g13
sg18
g13
sg19
S'c:\\windows\\fonts\\belli.ttf'
p188
sg21
g22
sbag7
(g8
g9
NtRp189
(dp190
g12
g50
sg14
S'Bodoni MT'
p191
sg16
I900
sg17
g13
sg18
g13
sg19
S'c:\\windows\\fonts\\bod_blai.ttf'
p192
sg21
g22
sbag7
(g8
g9
NtRp193
(dp194
g12
g13
sg14
S'Rockwell Extra Bold'
p195
sg16
I700
sg17
g13
sg18
g13
sg19
S'C:\\WINDOWS\\Fonts\\ROCKEB.TTF'
p196
sg21
g22
sbag7
(g8
g9
NtRp197
(dp198
g12
g13
sg14
S'Century Gothic'
p199
sg16
I400
sg17
g13
sg18
g13
sg19
S'C:\\WINDOWS\\Fonts\\GOTHIC.TTF'
p200
sg21
g22
sbag7
(g8
g9
NtRp201
(dp202
g12
g13
sg14
S'Microsoft Sans Serif'
p203
sg16
I400
sg17
g13
sg18
g13
sg19
S'C:\\WINDOWS\\Fonts\\micross.ttf'
p204
sg21
g22
sbag7
(g8
g9
NtRp205
(dp206
g12
g50
sg14
S'Candara'
p207
sg16
I700
sg17
g13
sg18
g13
sg19
S'C:\\WINDOWS\\Fonts\\Candaraz.ttf'
p208
sg21
g22
sbag7
(g8
g9
NtRp209
(dp210
g12
g13
sg14
S'Microsoft Tai Le'
p211
sg16
I700
sg17
g13
sg18
g13
sg19
S'c:\\windows\\fonts\\taileb.ttf'
p212
sg21
g22
sbag7
(g8
g9
NtRp213
(dp214
g12
g13
sg14
S'Franklin Gothic Demi'
p215
sg16
I600
sg17
g13
sg18
g13
sg19
S'c:\\windows\\fonts\\fradm.ttf'
p216
sg21
g22
sbag7
(g8
g9
NtRp217
(dp218
g12
g50
sg14
S'Trebuchet MS'
p219
sg16
I700
sg17
g13
sg18
g13
sg19
S'c:\\windows\\fonts\\trebucbi.ttf'
p220
sg21
g22
sbag7
(g8
g9
NtRp221
(dp222
g12
g13
sg14
S'Monotype Corsiva'
p223
sg16
I400
sg17
g13
sg18
g13
sg19
S'c:\\windows\\fonts\\mtcorsva.ttf'
p224
sg21
g22
sbag7
(g8
g9
NtRp225
(dp226
g12
g50
sg14
S'Segoe UI'
p227
sg16
I700
sg17
g13
sg18
g13
sg19
S'c:\\windows\\fonts\\segoeuiz.ttf'
p228
sg21
g22
sbag7
(g8
g9
NtRp229
(dp230
g12
g13
sg14
S'Bodoni MT'
p231
sg16
I400
sg17
S'condensed'
p232
sg18
g13
sg19
S'c:\\windows\\fonts\\bod_cr.ttf'
p233
sg21
g22
sbag7
(g8
g9
NtRp234
(dp235
g12
g50
sg14
S'Bodoni MT'
p236
sg16
I700
sg17
g13
sg18
g13
sg19
S'c:\\windows\\fonts\\bod_bi.ttf'
p237
sg21
g22
sbag7
(g8
g9
NtRp238
(dp239
g12
g50
sg14
S'Gill Sans MT'
p240
sg16
I400
sg17
g13
sg18
g13
sg19
S'c:\\windows\\fonts\\gili____.ttf'
p241
sg21
g22
sbag7
(g8
g9
NtRp242
(dp243
g12
g50
sg14
S'Segoe UI'
p244
sg16
I400
sg17
g13
sg18
g13
sg19
S'c:\\windows\\fonts\\seguibli.ttf'
p245
sg21
g22
sbag7
(g8
g9
NtRp246
(dp247
g12
g13
sg14
S'Imprint MT Shadow'
p248
sg16
I400
sg17
g13
sg18
g13
sg19
S'c:\\windows\\fonts\\imprisha.ttf'
p249
sg21
g22
sbag7
(g8
g9
NtRp250
(dp251
g12
g13
sg14
S'MT Extra'
p252
sg16
I400
sg17
g13
sg18
g13
sg19
S'c:\\windows\\fonts\\mtextra.ttf'
p253
sg21
g22
sbag7
(g8
g9
NtRp254
(dp255
g12
g50
sg14
S'Arial'
p256
sg16
I400
sg17
g13
sg18
g13
sg19
S'c:\\windows\\fonts\\ariali.ttf'
p257
sg21
g22
sbag7
(g8
g9
NtRp258
(dp259
g12
g50
sg14
S'Segoe UI'
p260
sg16
I400
sg17
g13
sg18
g13
sg19
S'c:\\windows\\fonts\\seguisbi.ttf'
p261
sg21
g22
sbag7
(g8
g9
NtRp262
(dp263
g12
g50
sg14
S'Franklin Gothic Demi'
p264
sg16
I600
sg17
g13
sg18
g13
sg19
S'C:\\WINDOWS\\Fonts\\FRADMIT.TTF'
p265
sg21
g22
sbag7
(g8
g9
NtRp266
(dp267
g12
g13
sg14
S'Magneto'
p268
sg16
I700
sg17
g13
sg18
g13
sg19
S'c:\\windows\\fonts\\magnetob.ttf'
p269
sg21
g22
sbag7
(g8
g9
NtRp270
(dp271
g12
g13
sg14
S'Tw Cen MT Condensed'
p272
sg16
I700
sg17
g232
sg18
g13
sg19
S'c:\\windows\\fonts\\tccb____.ttf'
p273
sg21
g22
sbag7
(g8
g9
NtRp274
(dp275
g12
g13
sg14
S'Segoe UI'
p276
sg16
I400
sg17
g13
sg18
g13
sg19
S'c:\\windows\\fonts\\seguisb.ttf'
p277
sg21
g22
sbag7
(g8
g9
NtRp278
(dp279
g12
g50
sg14
S'Times New Roman'
p280
sg16
I500
sg17
g13
sg18
g13
sg19
S'C:\\WINDOWS\\Fonts\\timesi.ttf'
p281
sg21
g22
sbag7
(g8
g9
NtRp282
(dp283
g12
g13
sg14
S'Perpetua'
p284
sg16
I400
sg17
g13
sg18
g13
sg19
S'C:\\WINDOWS\\Fonts\\PER_____.TTF'
p285
sg21
g22
sbag7
(g8
g9
NtRp286
(dp287
g12
g50
sg14
S'Georgia'
p288
sg16
I700
sg17
g13
sg18
g13
sg19
S'C:\\WINDOWS\\Fonts\\georgiaz.ttf'
p289
sg21
g22
sbag7
(g8
g9
NtRp290
(dp291
g12
g50
sg14
S'Lucida Handwriting'
p292
sg16
I400
sg17
g13
sg18
g13
sg19
S'C:\\WINDOWS\\Fonts\\LHANDW.TTF'
p293
sg21
g22
sbag7
(g8
g9
NtRp294
(dp295
g12
g13
sg14
S'Constantia'
p296
sg16
I700
sg17
g13
sg18
g13
sg19
S'C:\\WINDOWS\\Fonts\\constanb.ttf'
p297
sg21
g22
sbag7
(g8
g9
NtRp298
(dp299
g12
g13
sg14
S'Gill Sans MT'
p300
sg16
I400
sg17
g13
sg18
g13
sg19
S'C:\\WINDOWS\\Fonts\\GIL_____.TTF'
p301
sg21
g22
sbag7
(g8
g9
NtRp302
(dp303
g12
g13
sg14
S'Playbill'
p304
sg16
I400
sg17
g13
sg18
g13
sg19
S'C:\\WINDOWS\\Fonts\\PLAYBILL.TTF'
p305
sg21
g22
sbag7
(g8
g9
NtRp306
(dp307
g12
g13
sg14
S'Tahoma'
p308
sg16
I700
sg17
g13
sg18
g13
sg19
S'c:\\windows\\fonts\\tahomabd.ttf'
p309
sg21
g22
sbag7
(g8
g9
NtRp310
(dp311
g12
g50
sg14
S'Californian FB'
p312
sg16
I400
sg17
g13
sg18
g13
sg19
S'c:\\windows\\fonts\\califi.ttf'
p313
sg21
g22
sbag7
(g8
g9
NtRp314
(dp315
g12
g13
sg14
S'Kunstler Script'
p316
sg16
I400
sg17
g13
sg18
g13
sg19
S'c:\\windows\\fonts\\kunstler.ttf'
p317
sg21
g22
sbag7
(g8
g9
NtRp318
(dp319
g12
g13
sg14
S'HP Simplified'
p320
sg16
I400
sg17
g13
sg18
g13
sg19
S'c:\\windows\\fonts\\hpsimplified_rg.ttf'
p321
sg21
g22
sbag7
(g8
g9
NtRp322
(dp323
g12
g13
sg14
S'Consolas'
p324
sg16
I400
sg17
g13
sg18
g13
sg19
S'c:\\windows\\fonts\\consola.ttf'
p325
sg21
g22
sbag7
(g8
g9
NtRp326
(dp327
g12
g13
sg14
S'Curlz MT'
p328
sg16
I400
sg17
g13
sg18
g13
sg19
S'C:\\WINDOWS\\Fonts\\CURLZ___.TTF'
p329
sg21
g22
sbag7
(g8
g9
NtRp330
(dp331
g12
g50
sg14
S'Gill Sans MT'
p332
sg16
I700
sg17
g13
sg18
g13
sg19
S'c:\\windows\\fonts\\gilbi___.ttf'
p333
sg21
g22
sbag7
(g8
g9
NtRp334
(dp335
g12
g50
sg14
S'Perpetua'
p336
sg16
I700
sg17
g13
sg18
g13
sg19
S'C:\\WINDOWS\\Fonts\\PERBI___.TTF'
p337
sg21
g22
sbag7
(g8
g9
NtRp338
(dp339
g12
g13
sg14
S'Parchment'
p340
sg16
I400
sg17
g13
sg18
g13
sg19
S'C:\\WINDOWS\\Fonts\\PARCHM.TTF'
p341
sg21
g22
sbag7
(g8
g9
NtRp342
(dp343
g12
g13
sg14
S'Arial'
p344
sg16
I700
sg17
g13
sg18
g13
sg19
S'c:\\windows\\fonts\\arialbd.ttf'
p345
sg21
g22
sbag7
(g8
g9
NtRp346
(dp347
g12
g13
sg14
S'Berlin Sans FB'
p348
sg16
I400
sg17
g13
sg18
g13
sg19
S'C:\\WINDOWS\\Fonts\\BRLNSR.TTF'
p349
sg21
g22
sbag7
(g8
g9
NtRp350
(dp351
g12
g13
sg14
S'Bodoni MT'
p352
sg16
I400
sg17
g232
sg18
g13
sg19
S'C:\\WINDOWS\\Fonts\\BOD_CR.TTF'
p353
sg21
g22
sbag7
(g8
g9
NtRp354
(dp355
g12
g13
sg14
S'Bodoni MT'
p356
sg16
I900
sg17
g13
sg18
g13
sg19
S'C:\\WINDOWS\\Fonts\\BOD_BLAR.TTF'
p357
sg21
g22
sbag7
(g8
g9
NtRp358
(dp359
g12
g50
sg14
S'Verdana'
p360
sg16
I700
sg17
g13
sg18
g13
sg19
S'c:\\windows\\fonts\\verdanaz.ttf'
p361
sg21
g22
sbag7
(g8
g9
NtRp362
(dp363
g12
g13
sg14
S'Lucida Fax'
p364
sg16
I700
sg17
g13
sg18
g13
sg19
S'c:\\windows\\fonts\\lfaxd.ttf'
p365
sg21
g22
sbag7
(g8
g9
NtRp366
(dp367
g12
g50
sg14
S'Georgia'
p368
sg16
I400
sg17
g13
sg18
g13
sg19
S'C:\\WINDOWS\\Fonts\\georgiai.ttf'
p369
sg21
g22
sbag7
(g8
g9
NtRp370
(dp371
g12
g50
sg14
S'Bodoni MT'
p372
sg16
I400
sg17
g13
sg18
g13
sg19
S'C:\\WINDOWS\\Fonts\\BOD_I.TTF'
p373
sg21
g22
sbag7
(g8
g9
NtRp374
(dp375
g12
g13
sg14
S'Maiandra GD'
p376
sg16
I400
sg17
g13
sg18
g13
sg19
S'c:\\windows\\fonts\\maian.ttf'
p377
sg21
g22
sbag7
(g8
g9
NtRp378
(dp379
g12
g50
sg14
S'Franklin Gothic Book'
p380
sg16
I400
sg17
g13
sg18
g13
sg19
S'c:\\windows\\fonts\\frabkit.ttf'
p381
sg21
g22
sbag7
(g8
g9
NtRp382
(dp383
g12
g50
sg14
S'Constantia'
p384
sg16
I400
sg17
g13
sg18
g13
sg19
S'C:\\WINDOWS\\Fonts\\constani.ttf'
p385
sg21
g22
sbag7
(g8
g9
NtRp386
(dp387
g12
g13
sg14
S'Segoe UI'
p388
sg16
I400
sg17
g13
sg18
g13
sg19
S'c:\\windows\\fonts\\segoeui.ttf'
p389
sg21
g22
sbag7
(g8
g9
NtRp390
(dp391
g12
g13
sg14
S'HP Simplified'
p392
sg16
I700
sg17
g13
sg18
g13
sg19
S'C:\\WINDOWS\\Fonts\\HPSimplified_Bd.ttf'
p393
sg21
g22
sbag7
(g8
g9
NtRp394
(dp395
g12
g13
sg14
S'Book Antiqua'
p396
sg16
I700
sg17
g13
sg18
g13
sg19
S'C:\\WINDOWS\\Fonts\\ANTQUAB.TTF'
p397
sg21
g22
sbag7
(g8
g9
NtRp398
(dp399
g12
g50
sg14
S'Book Antiqua'
p400
sg16
I700
sg17
g13
sg18
g13
sg19
S'c:\\windows\\fonts\\antquabi.ttf'
p401
sg21
g22
sbag7
(g8
g9
NtRp402
(dp403
g12
g13
sg14
S'Corbel'
p404
sg16
I700
sg17
g13
sg18
g13
sg19
S'c:\\windows\\fonts\\corbelb.ttf'
p405
sg21
g22
sbag7
(g8
g9
NtRp406
(dp407
g12
g13
sg14
S'Californian FB'
p408
sg16
I700
sg17
g13
sg18
g13
sg19
S'c:\\windows\\fonts\\califb.ttf'
p409
sg21
g22
sbag7
(g8
g9
NtRp410
(dp411
g12
g13
sg14
S'Castellar'
p412
sg16
I400
sg17
g13
sg18
g13
sg19
S'C:\\WINDOWS\\Fonts\\CASTELAR.TTF'
p413
sg21
g22
sbag7
(g8
g9
NtRp414
(dp415
g12
g13
sg14
S'Chiller'
p416
sg16
I400
sg17
g13
sg18
g13
sg19
S'C:\\WINDOWS\\Fonts\\CHILLER.TTF'
p417
sg21
g22
sbag7
(g8
g9
NtRp418
(dp419
g12
g13
sg14
S'Informal Roman'
p420
sg16
I500
sg17
g13
sg18
g13
sg19
S'c:\\windows\\fonts\\infroman.ttf'
p421
sg21
g22
sbag7
(g8
g9
NtRp422
(dp423
g12
g13
sg14
S'Eras Bold ITC'
p424
sg16
I700
sg17
g13
sg18
g13
sg19
S'C:\\WINDOWS\\Fonts\\ERASBD.TTF'
p425
sg21
g22
sbag7
(g8
g9
NtRp426
(dp427
g12
g13
sg14
S'Rockwell Condensed'
p428
sg16
I700
sg17
g232
sg18
g13
sg19
S'C:\\WINDOWS\\Fonts\\ROCCB___.TTF'
p429
sg21
g22
sbag7
(g8
g9
NtRp430
(dp431
g12
g13
sg14
S'Ink Free'
p432
sg16
I400
sg17
g13
sg18
g13
sg19
S'C:\\WINDOWS\\Fonts\\Inkfree.ttf'
p433
sg21
g22
sbag7
(g8
g9
NtRp434
(dp435
g12
g13
sg14
S'Agency FB'
p436
sg16
I700
sg17
g13
sg18
g13
sg19
S'c:\\windows\\fonts\\agencyb.ttf'
p437
sg21
g22
sbag7
(g8
g9
NtRp438
(dp439
g12
g13
sg14
S'Nirmala UI'
p440
sg16
I400
sg17
g13
sg18
g13
sg19
S'c:\\windows\\fonts\\nirmala.ttf'
p441
sg21
g22
sbag7
(g8
g9
NtRp442
(dp443
g12
g13
sg14
S'Cooper Black'
p444
sg16
I900
sg17
g13
sg18
g13
sg19
S'c:\\windows\\fonts\\coopbl.ttf'
p445
sg21
g22
sbag7
(g8
g9
NtRp446
(dp447
g12
g13
sg14
S'Arial'
p448
sg16
I900
sg17
g13
sg18
g13
sg19
S'C:\\WINDOWS\\Fonts\\ariblk.ttf'
p449
sg21
g22
sbag7
(g8
g9
NtRp450
(dp451
g12
g13
sg14
S'Arial'
p452
sg16
I400
sg17
g232
sg18
g13
sg19
S'c:\\windows\\fonts\\arialn.ttf'
p453
sg21
g22
sbag7
(g8
g9
NtRp454
(dp455
g12
g41
sg14
S'Lucida Sans Typewriter'
p456
sg16
I700
sg17
g13
sg18
g13
sg19
S'c:\\windows\\fonts\\ltypebo.ttf'
p457
sg21
g22
sbag7
(g8
g9
NtRp458
(dp459
g12
g13
sg14
S'Perpetua Titling MT'
p460
sg16
I700
sg17
g13
sg18
g13
sg19
S'C:\\WINDOWS\\Fonts\\PERTIBD.TTF'
p461
sg21
g22
sbag7
(g8
g9
NtRp462
(dp463
g12
g13
sg14
S'Impact'
p464
sg16
I400
sg17
g13
sg18
g13
sg19
S'C:\\WINDOWS\\Fonts\\impact.ttf'
p465
sg21
g22
sbag7
(g8
g9
NtRp466
(dp467
g12
g13
sg14
S'Bahnschrift'
p468
sg16
I400
sg17
g13
sg18
g13
sg19
S'c:\\windows\\fonts\\bahnschrift.ttf'
p469
sg21
g22
sbag7
(g8
g9
NtRp470
(dp471
g12
g13
sg14
S'Tw Cen MT Condensed Extra Bold'
p472
sg16
I700
sg17
g232
sg18
g13
sg19
S'C:\\WINDOWS\\Fonts\\TCCEB.TTF'
p473
sg21
g22
sbag7
(g8
g9
NtRp474
(dp475
g12
g50
sg14
S'Arial'
p476
sg16
I700
sg17
g232
sg18
g13
sg19
S'C:\\WINDOWS\\Fonts\\ARIALNBI.TTF'
p477
sg21
g22
sbag7
(g8
g9
NtRp478
(dp479
g12
g13
sg14
S'Modern No. 20'
p480
sg16
I400
sg17
g13
sg18
g13
sg19
S'c:\\windows\\fonts\\mod20.ttf'
p481
sg21
g22
sbag7
(g8
g9
NtRp482
(dp483
g12
g50
sg14
S'Century Schoolbook'
p484
sg16
I700
sg17
g13
sg18
g13
sg19
S'c:\\windows\\fonts\\schlbkbi.ttf'
p485
sg21
g22
sbag7
(g8
g9
NtRp486
(dp487
g12
g13
sg14
S'Kristen ITC'
p488
sg16
I400
sg17
g13
sg18
g13
sg19
S'C:\\WINDOWS\\Fonts\\ITCKRIST.TTF'
p489
sg21
g22
sbag7
(g8
g9
NtRp490
(dp491
g12
g50
sg14
S'Tw Cen MT'
p492
sg16
I400
sg17
g13
sg18
g13
sg19
S'C:\\WINDOWS\\Fonts\\TCMI____.TTF'
p493
sg21
g22
sbag7
(g8
g9
NtRp494
(dp495
g12
g13
sg14
S'Microsoft New Tai Lue'
p496
sg16
I700
sg17
g13
sg18
g13
sg19
S'C:\\WINDOWS\\Fonts\\ntailub.ttf'
p497
sg21
g22
sbag7
(g8
g9
NtRp498
(dp499
g12
g13
sg14
S'OCR A Extended'
p500
sg16
I400
sg17
g13
sg18
g13
sg19
S'c:\\windows\\fonts\\ocraext.ttf'
p501
sg21
g22
sbag7
(g8
g9
NtRp502
(dp503
g12
g13
sg14
S'Segoe UI'
p504
sg16
I700
sg17
g13
sg18
g13
sg19
S'C:\\WINDOWS\\Fonts\\segoeuib.ttf'
p505
sg21
g22
sbag7
(g8
g9
NtRp506
(dp507
g12
g50
sg14
S'Lucida Sans'
p508
sg16
I400
sg17
g13
sg18
g13
sg19
S'c:\\windows\\fonts\\lsansi.ttf'
p509
sg21
g22
sbag7
(g8
g9
NtRp510
(dp511
g12
g50
sg14
S'Bodoni MT'
p512
sg16
I700
sg17
g13
sg18
g13
sg19
S'C:\\WINDOWS\\Fonts\\BOD_BI.TTF'
p513
sg21
g22
sbag7
(g8
g9
NtRp514
(dp515
g12
g13
sg14
S'Corbel'
p516
sg16
I200
sg17
g13
sg18
g13
sg19
S'C:\\WINDOWS\\Fonts\\corbell.ttf'
p517
sg21
g22
sbag7
(g8
g9
NtRp518
(dp519
g12
g13
sg14
S'Gabriola'
p520
sg16
I400
sg17
g13
sg18
g13
sg19
S'C:\\WINDOWS\\Fonts\\Gabriola.ttf'
p521
sg21
g22
sbag7
(g8
g9
NtRp522
(dp523
g12
g13
sg14
S'Eras Medium ITC'
p524
sg16
I500
sg17
g13
sg18
g13
sg19
S'c:\\windows\\fonts\\erasmd.ttf'
p525
sg21
g22
sbag7
(g8
g9
NtRp526
(dp527
g12
g50
sg14
S'Verdana'
p528
sg16
I400
sg17
g13
sg18
g13
sg19
S'c:\\windows\\fonts\\verdanai.ttf'
p529
sg21
g22
sbag7
(g8
g9
NtRp530
(dp531
g12
g50
sg14
S'Franklin Gothic Demi'
p532
sg16
I600
sg17
g13
sg18
g13
sg19
S'c:\\windows\\fonts\\fradmit.ttf'
p533
sg21
g22
sbag7
(g8
g9
NtRp534
(dp535
g12
g13
sg14
S'Palatino Linotype'
p536
sg16
I400
sg17
g13
sg18
g13
sg19
S'C:\\WINDOWS\\Fonts\\pala.ttf'
p537
sg21
g22
sbag7
(g8
g9
NtRp538
(dp539
g12
g50
sg14
S'Bodoni MT'
p540
sg16
I700
sg17
g232
sg18
g13
sg19
S'C:\\WINDOWS\\Fonts\\BOD_CBI.TTF'
p541
sg21
g22
sbag7
(g8
g9
NtRp542
(dp543
g12
g13
sg14
S'Symbol'
p544
sg16
I400
sg17
g13
sg18
g13
sg19
S'c:\\windows\\fonts\\symbol.ttf'
p545
sg21
g22
sbag7
(g8
g9
NtRp546
(dp547
g12
g13
sg14
S'Monotype Corsiva'
p548
sg16
I400
sg17
g13
sg18
g13
sg19
S'C:\\WINDOWS\\Fonts\\MTCORSVA.TTF'
p549
sg21
g22
sbag7
(g8
g9
NtRp550
(dp551
g12
g13
sg14
S'Segoe Print'
p552
sg16
I700
sg17
g13
sg18
g13
sg19
S'C:\\WINDOWS\\Fonts\\segoeprb.ttf'
p553
sg21
g22
sbag7
(g8
g9
NtRp554
(dp555
g12
g50
sg14
S'Lucida Sans'
p556
sg16
I400
sg17
g13
sg18
g13
sg19
S'C:\\WINDOWS\\Fonts\\LSANSI.TTF'
p557
sg21
g22
sbag7
(g8
g9
NtRp558
(dp559
g12
g13
sg14
S'Sylfaen'
p560
sg16
I400
sg17
g13
sg18
g13
sg19
S'c:\\windows\\fonts\\sylfaen.ttf'
p561
sg21
g22
sbag7
(g8
g9
NtRp562
(dp563
g12
g13
sg14
S'Rockwell Condensed'
p564
sg16
I700
sg17
g232
sg18
g13
sg19
S'c:\\windows\\fonts\\roccb___.ttf'
p565
sg21
g22
sbag7
(g8
g9
NtRp566
(dp567
g12
g13
sg14
S'Agency FB'
p568
sg16
I700
sg17
g13
sg18
g13
sg19
S'C:\\WINDOWS\\Fonts\\AGENCYB.TTF'
p569
sg21
g22
sbag7
(g8
g9
NtRp570
(dp571
g12
g13
sg14
S'Arial'
p572
sg16
I400
sg17
g13
sg18
g13
sg19
S'C:\\WINDOWS\\Fonts\\arial.ttf'
p573
sg21
g22
sbag7
(g8
g9
NtRp574
(dp575
g12
g13
sg14
S'Javanese Text'
p576
sg16
I400
sg17
g13
sg18
g13
sg19
S'C:\\WINDOWS\\Fonts\\javatext.ttf'
p577
sg21
g22
sbag7
(g8
g9
NtRp578
(dp579
g12
g50
sg14
S'Gill Sans MT'
p580
sg16
I700
sg17
g13
sg18
g13
sg19
S'C:\\WINDOWS\\Fonts\\GILBI___.TTF'
p581
sg21
g22
sbag7
(g8
g9
NtRp582
(dp583
g12
g50
sg14
S'Palatino Linotype'
p584
sg16
I700
sg17
g13
sg18
g13
sg19
S'C:\\WINDOWS\\Fonts\\palabi.ttf'
p585
sg21
g22
sbag7
(g8
g9
NtRp586
(dp587
g12
g13
sg14
S'Palace Script MT'
p588
sg16
I400
sg17
g13
sg18
g13
sg19
S'C:\\WINDOWS\\Fonts\\PALSCRI.TTF'
p589
sg21
g22
sbag7
(g8
g9
NtRp590
(dp591
g12
g50
sg14
S'Lucida Fax'
p592
sg16
I400
sg17
g13
sg18
g13
sg19
S'C:\\WINDOWS\\Fonts\\LFAXI.TTF'
p593
sg21
g22
sbag7
(g8
g9
NtRp594
(dp595
g12
g13
sg14
S'Nirmala UI'
p596
sg16
I200
sg17
g13
sg18
g13
sg19
S'c:\\windows\\fonts\\nirmalas.ttf'
p597
sg21
g22
sbag7
(g8
g9
NtRp598
(dp599
g12
g50
sg14
S'Century Schoolbook'
p600
sg16
I400
sg17
g13
sg18
g13
sg19
S'c:\\windows\\fonts\\schlbki.ttf'
p601
sg21
g22
sbag7
(g8
g9
NtRp602
(dp603
g12
g13
sg14
S'Myanmar Text'
p604
sg16
I400
sg17
g13
sg18
g13
sg19
S'C:\\WINDOWS\\Fonts\\mmrtext.ttf'
p605
sg21
g22
sbag7
(g8
g9
NtRp606
(dp607
g12
g13
sg14
S'Nirmala UI'
p608
sg16
I400
sg17
g13
sg18
g13
sg19
S'C:\\WINDOWS\\Fonts\\Nirmala.ttf'
p609
sg21
g22
sbag7
(g8
g9
NtRp610
(dp611
g12
g13
sg14
S'Segoe UI Historic'
p612
sg16
I400
sg17
g13
sg18
g13
sg19
S'C:\\WINDOWS\\Fonts\\seguihis.ttf'
p613
sg21
g22
sbag7
(g8
g9
NtRp614
(dp615
g12
g13
sg14
S'Snap ITC'
p616
sg16
I400
sg17
g13
sg18
g13
sg19
S'C:\\WINDOWS\\Fonts\\SNAP____.TTF'
p617
sg21
g22
sbag7
(g8
g9
NtRp618
(dp619
g12
g13
sg14
S'Britannic Bold'
p620
sg16
I700
sg17
g13
sg18
g13
sg19
S'C:\\WINDOWS\\Fonts\\BRITANIC.TTF'
p621
sg21
g22
sbag7
(g8
g9
NtRp622
(dp623
g12
g13
sg14
S'Onyx'
p624
sg16
I400
sg17
g13
sg18
g13
sg19
S'c:\\windows\\fonts\\onyx.ttf'
p625
sg21
g22
sbag7
(g8
g9
NtRp626
(dp627
g12
g13
sg14
S'Gadugi'
p628
sg16
I400
sg17
g13
sg18
g13
sg19
S'c:\\windows\\fonts\\gadugi.ttf'
p629
sg21
g22
sbag7
(g8
g9
NtRp630
(dp631
g12
g13
sg14
S'Segoe UI'
p632
sg16
I400
sg17
g13
sg18
g13
sg19
S'C:\\WINDOWS\\Fonts\\segoeuisl.ttf'
p633
sg21
g22
sbag7
(g8
g9
NtRp634
(dp635
g12
g13
sg14
S'Dubai'
p636
sg16
I700
sg17
g13
sg18
g13
sg19
S'c:\\windows\\fonts\\dubai-bold.ttf'
p637
sg21
g22
sbag7
(g8
g9
NtRp638
(dp639
g12
g13
sg14
S'Courier New'
p640
sg16
I400
sg17
g13
sg18
g13
sg19
S'C:\\WINDOWS\\Fonts\\cour.ttf'
p641
sg21
g22
sbag7
(g8
g9
NtRp642
(dp643
g12
g50
sg14
S'Gill Sans MT'
p644
sg16
I400
sg17
g13
sg18
g13
sg19
S'C:\\WINDOWS\\Fonts\\GILI____.TTF'
p645
sg21
g22
sbag7
(g8
g9
NtRp646
(dp647
g12
g13
sg14
S'MS Reference Specialty'
p648
sg16
I400
sg17
g13
sg18
g13
sg19
S'C:\\WINDOWS\\Fonts\\REFSPCL.TTF'
p649
sg21
g22
sbag7
(g8
g9
NtRp650
(dp651
g12
g50
sg14
S'Bookman Old Style'
p652
sg16
I400
sg17
g13
sg18
g13
sg19
S'c:\\windows\\fonts\\bookosi.ttf'
p653
sg21
g22
sbag7
(g8
g9
NtRp654
(dp655
g12
g13
sg14
S'Franklin Gothic Demi'
p656
sg16
I600
sg17
g13
sg18
g13
sg19
S'C:\\WINDOWS\\Fonts\\FRADM.TTF'
p657
sg21
g22
sbag7
(g8
g9
NtRp658
(dp659
g12
g13
sg14
S'Gloucester MT Extra Condensed'
p660
sg16
I400
sg17
g232
sg18
g13
sg19
S'c:\\windows\\fonts\\glecb.ttf'
p661
sg21
g22
sbag7
(g8
g9
NtRp662
(dp663
g12
g13
sg14
S'Wingdings 2'
p664
sg16
I400
sg17
g13
sg18
g13
sg19
S'C:\\WINDOWS\\Fonts\\WINGDNG2.TTF'
p665
sg21
g22
sbag7
(g8
g9
NtRp666
(dp667
g12
g13
sg14
S'Microsoft Tai Le'
p668
sg16
I400
sg17
g13
sg18
g13
sg19
S'c:\\windows\\fonts\\taile.ttf'
p669
sg21
g22
sbag7
(g8
g9
NtRp670
(dp671
g12
g13
sg14
S'Calibri'
p672
sg16
I400
sg17
g13
sg18
g13
sg19
S'c:\\windows\\fonts\\calibri.ttf'
p673
sg21
g22
sbag7
(g8
g9
NtRp674
(dp675
g12
g50
sg14
S'Franklin Gothic Heavy'
p676
sg16
I800
sg17
g13
sg18
g13
sg19
S'C:\\WINDOWS\\Fonts\\FRAHVIT.TTF'
p677
sg21
g22
sbag7
(g8
g9
NtRp678
(dp679
g12
g50
sg14
S'Calibri'
p680
sg16
I200
sg17
g13
sg18
g13
sg19
S'C:\\WINDOWS\\Fonts\\calibrili.ttf'
p681
sg21
g22
sbag7
(g8
g9
NtRp682
(dp683
g12
g13
sg14
S'Centaur'
p684
sg16
I400
sg17
g13
sg18
g13
sg19
S'c:\\windows\\fonts\\centaur.ttf'
p685
sg21
g22
sbag7
(g8
g9
NtRp686
(dp687
g12
g13
sg14
S'French Script MT'
p688
sg16
I400
sg17
g13
sg18
g13
sg19
S'C:\\WINDOWS\\Fonts\\FRSCRIPT.TTF'
p689
sg21
g22
sbag7
(g8
g9
NtRp690
(dp691
g12
g50
sg14
S'Corbel'
p692
sg16
I200
sg17
g13
sg18
g13
sg19
S'c:\\windows\\fonts\\corbelli.ttf'
p693
sg21
g22
sbag7
(g8
g9
NtRp694
(dp695
g12
g50
sg14
S'Cambria'
p696
sg16
I400
sg17
g13
sg18
g13
sg19
S'c:\\windows\\fonts\\cambriai.ttf'
p697
sg21
g22
sbag7
(g8
g9
NtRp698
(dp699
g12
g13
sg14
S'Tw Cen MT'
p700
sg16
I400
sg17
g13
sg18
g13
sg19
S'c:\\windows\\fonts\\tcm_____.ttf'
p701
sg21
g22
sbag7
(g8
g9
NtRp702
(dp703
g12
g13
sg14
S'Bernard MT Condensed'
p704
sg16
I400
sg17
g232
sg18
g13
sg19
S'c:\\windows\\fonts\\bernhc.ttf'
p705
sg21
g22
sbag7
(g8
g9
NtRp706
(dp707
g12
g13
sg14
S'Tahoma'
p708
sg16
I400
sg17
g13
sg18
g13
sg19
S'C:\\WINDOWS\\Fonts\\tahoma.ttf'
p709
sg21
g22
sbag7
(g8
g9
NtRp710
(dp711
g12
g13
sg14
S'Agency FB'
p712
sg16
I400
sg17
g13
sg18
g13
sg19
S'C:\\WINDOWS\\Fonts\\AGENCYR.TTF'
p713
sg21
g22
sbag7
(g8
g9
NtRp714
(dp715
g12
g13
sg14
S'Castellar'
p716
sg16
I400
sg17
g13
sg18
g13
sg19
S'c:\\windows\\fonts\\castelar.ttf'
p717
sg21
g22
sbag7
(g8
g9
NtRp718
(dp719
g12
g13
sg14
S'Century Gothic'
p720
sg16
I700
sg17
g13
sg18
g13
sg19
S'C:\\WINDOWS\\Fonts\\GOTHICB.TTF'
p721
sg21
g22
sbag7
(g8
g9
NtRp722
(dp723
g12
g50
sg14
S'HP Simplified'
p724
sg16
I200
sg17
g13
sg18
g13
sg19
S'C:\\WINDOWS\\Fonts\\HPSimplified_LtIt.ttf'
p725
sg21
g22
sbag7
(g8
g9
NtRp726
(dp727
g12
g13
sg14
S'Leelawadee UI'
p728
sg16
I700
sg17
g13
sg18
g13
sg19
S'C:\\WINDOWS\\Fonts\\LeelaUIb.ttf'
p729
sg21
g22
sbag7
(g8
g9
NtRp730
(dp731
g12
g13
sg14
S'Franklin Gothic Medium'
p732
sg16
I500
sg17
g13
sg18
g13
sg19
S'C:\\WINDOWS\\Fonts\\framd.ttf'
p733
sg21
g22
sbag7
(g8
g9
NtRp734
(dp735
g12
g50
sg14
S'Cambria'
p736
sg16
I700
sg17
g13
sg18
g13
sg19
S'C:\\WINDOWS\\Fonts\\cambriaz.ttf'
p737
sg21
g22
sbag7
(g8
g9
NtRp738
(dp739
g12
g13
sg14
S'Arial Unicode MS'
p740
sg16
I400
sg17
g13
sg18
g13
sg19
S'c:\\windows\\fonts\\arialuni.ttf'
p741
sg21
g22
sbag7
(g8
g9
NtRp742
(dp743
g12
g13
sg14
S'Ebrima'
p744
sg16
I700
sg17
g13
sg18
g13
sg19
S'c:\\windows\\fonts\\ebrimabd.ttf'
p745
sg21
g22
sbag7
(g8
g9
NtRp746
(dp747
g12
g13
sg14
S'Gill Sans Ultra Bold Condensed'
p748
sg16
I700
sg17
g232
sg18
g13
sg19
S'c:\\windows\\fonts\\gillubcd.ttf'
p749
sg21
g22
sbag7
(g8
g9
NtRp750
(dp751
g12
g13
sg14
S'Corbel'
p752
sg16
I400
sg17
g13
sg18
g13
sg19
S'C:\\WINDOWS\\Fonts\\corbel.ttf'
p753
sg21
g22
sbag7
(g8
g9
NtRp754
(dp755
g12
g13
sg14
S'Gloucester MT Extra Condensed'
p756
sg16
I400
sg17
g232
sg18
g13
sg19
S'C:\\WINDOWS\\Fonts\\GLECB.TTF'
p757
sg21
g22
sbag7
(g8
g9
NtRp758
(dp759
g12
g50
sg14
S'Consolas'
p760
sg16
I700
sg17
g13
sg18
g13
sg19
S'C:\\WINDOWS\\Fonts\\consolaz.ttf'
p761
sg21
g22
sbag7
(g8
g9
NtRp762
(dp763
g12
g13
sg14
S'Calibri'
p764
sg16
I700
sg17
g13
sg18
g13
sg19
S'C:\\WINDOWS\\Fonts\\calibrib.ttf'
p765
sg21
g22
sbag7
(g8
g9
NtRp766
(dp767
g12
g13
sg14
S'Colonna MT'
p768
sg16
I400
sg17
g13
sg18
g13
sg19
S'C:\\WINDOWS\\Fonts\\COLONNA.TTF'
p769
sg21
g22
sbag7
(g8
g9
NtRp770
(dp771
g12
g50
sg14
S'Perpetua'
p772
sg16
I400
sg17
g13
sg18
g13
sg19
S'c:\\windows\\fonts\\peri____.ttf'
p773
sg21
g22
sbag7
(g8
g9
NtRp774
(dp775
g12
g13
sg14
S'Rockwell'
p776
sg16
I400
sg17
g13
sg18
g13
sg19
S'C:\\WINDOWS\\Fonts\\ROCK.TTF'
p777
sg21
g22
sbag7
(g8
g9
NtRp778
(dp779
g12
g13
sg14
S'Book Antiqua'
p780
sg16
I400
sg17
g13
sg18
g13
sg19
S'c:\\windows\\fonts\\bkant.ttf'
p781
sg21
g22
sbag7
(g8
g9
NtRp782
(dp783
g12
g50
sg14
S'Tw Cen MT'
p784
sg16
I400
sg17
g13
sg18
g13
sg19
S'c:\\windows\\fonts\\tcmi____.ttf'
p785
sg21
g22
sbag7
(g8
g9
NtRp786
(dp787
g12
g50
sg14
S'Candara'
p788
sg16
I200
sg17
g13
sg18
g13
sg19
S'C:\\WINDOWS\\Fonts\\Candarali.ttf'
p789
sg21
g22
sbag7
(g8
g9
NtRp790
(dp791
g12
g13
sg14
S'Forte'
p792
sg16
I400
sg17
g13
sg18
g13
sg19
S'C:\\WINDOWS\\Fonts\\FORTE.TTF'
p793
sg21
g22
sbag7
(g8
g9
NtRp794
(dp795
g12
g13
sg14
S'Segoe Print'
p796
sg16
I400
sg17
g13
sg18
g13
sg19
S'c:\\windows\\fonts\\segoepr.ttf'
p797
sg21
g22
sbag7
(g8
g9
NtRp798
(dp799
g12
g13
sg14
S'Times New Roman'
p800
sg16
I500
sg17
g13
sg18
g13
sg19
S'c:\\windows\\fonts\\times.ttf'
p801
sg21
g22
sbag7
(g8
g9
NtRp802
(dp803
g12
g13
sg14
S'Wingdings 2'
p804
sg16
I400
sg17
g13
sg18
g13
sg19
S'c:\\windows\\fonts\\wingdng2.ttf'
p805
sg21
g22
sbag7
(g8
g9
NtRp806
(dp807
g12
g13
sg14
S'Consolas'
p808
sg16
I700
sg17
g13
sg18
g13
sg19
S'c:\\windows\\fonts\\consolab.ttf'
p809
sg21
g22
sbag7
(g8
g9
NtRp810
(dp811
g12
g41
sg14
S'Lucida Sans Typewriter'
p812
sg16
I700
sg17
g13
sg18
g13
sg19
S'C:\\WINDOWS\\Fonts\\LTYPEBO.TTF'
p813
sg21
g22
sbag7
(g8
g9
NtRp814
(dp815
g12
g50
sg14
S'Courier New'
p816
sg16
I400
sg17
g13
sg18
g13
sg19
S'c:\\windows\\fonts\\couri.ttf'
p817
sg21
g22
sbag7
(g8
g9
NtRp818
(dp819
g12
g13
sg14
S'Berlin Sans FB Demi'
p820
sg16
I700
sg17
g13
sg18
g13
sg19
S'C:\\WINDOWS\\Fonts\\BRLNSDB.TTF'
p821
sg21
g22
sbag7
(g8
g9
NtRp822
(dp823
g12
g13
sg14
S'Leelawadee'
p824
sg16
I400
sg17
g13
sg18
g13
sg19
S'c:\\windows\\fonts\\leelawad.ttf'
p825
sg21
g22
sbag7
(g8
g9
NtRp826
(dp827
g12
g50
sg14
S'Bodoni MT'
p828
sg16
I400
sg17
g13
sg18
g13
sg19
S'c:\\windows\\fonts\\bod_i.ttf'
p829
sg21
g22
sbag7
(g8
g9
NtRp830
(dp831
g12
g13
sg14
S'Bodoni MT'
p832
sg16
I400
sg17
g13
sg18
g13
sg19
S'C:\\WINDOWS\\Fonts\\BOD_PSTC.TTF'
p833
sg21
g22
sbag7
(g8
g9
NtRp834
(dp835
g12
g13
sg14
S'Engravers MT'
p836
sg16
I400
sg17
g13
sg18
g13
sg19
S'c:\\windows\\fonts\\engr.ttf'
p837
sg21
g22
sbag7
(g8
g9
NtRp838
(dp839
g12
g13
sg14
S'Goudy Old Style'
p840
sg16
I700
sg17
g13
sg18
g13
sg19
S'C:\\WINDOWS\\Fonts\\GOUDOSB.TTF'
p841
sg21
g22
sbag7
(g8
g9
NtRp842
(dp843
g12
g13
sg14
S'Lucida Sans Unicode'
p844
sg16
I400
sg17
g13
sg18
g13
sg19
S'c:\\windows\\fonts\\l_10646.ttf'
p845
sg21
g22
sbag7
(g8
g9
NtRp846
(dp847
g12
g13
sg14
S'Lucida Fax'
p848
sg16
I400
sg17
g13
sg18
g13
sg19
S'C:\\WINDOWS\\Fonts\\LFAX.TTF'
p849
sg21
g22
sbag7
(g8
g9
NtRp850
(dp851
g12
g13
sg14
S'Dubai'
p852
sg16
I500
sg17
g13
sg18
g13
sg19
S'c:\\windows\\fonts\\dubai-medium.ttf'
p853
sg21
g22
sbag7
(g8
g9
NtRp854
(dp855
g12
g13
sg14
S'MS Reference Sans Serif'
p856
sg16
I400
sg17
g13
sg18
g13
sg19
S'c:\\windows\\fonts\\refsan.ttf'
p857
sg21
g22
sbag7
(g8
g9
NtRp858
(dp859
g12
g13
sg14
S'Bookman Old Style'
p860
sg16
I700
sg17
g13
sg18
g13
sg19
S'c:\\windows\\fonts\\bookosb.ttf'
p861
sg21
g22
sbag7
(g8
g9
NtRp862
(dp863
g12
g50
sg14
S'Calisto MT'
p864
sg16
I700
sg17
g13
sg18
g13
sg19
S'C:\\WINDOWS\\Fonts\\CALISTBI.TTF'
p865
sg21
g22
sbag7
(g8
g9
NtRp866
(dp867
g12
g13
sg14
S'Felix Titling'
p868
sg16
I400
sg17
g13
sg18
g13
sg19
S'c:\\windows\\fonts\\felixti.ttf'
p869
sg21
g22
sbag7
(g8
g9
NtRp870
(dp871
g12
g13
sg14
S'Ink Free'
p872
sg16
I400
sg17
g13
sg18
g13
sg19
S'c:\\windows\\fonts\\inkfree.ttf'
p873
sg21
g22
sbag7
(g8
g9
NtRp874
(dp875
g12
g50
sg14
S'Palatino Linotype'
p876
sg16
I400
sg17
g13
sg18
g13
sg19
S'c:\\windows\\fonts\\palai.ttf'
p877
sg21
g22
sbag7
(g8
g9
NtRp878
(dp879
g12
g50
sg14
S'Franklin Gothic Heavy'
p880
sg16
I800
sg17
g13
sg18
g13
sg19
S'c:\\windows\\fonts\\frahvit.ttf'
p881
sg21
g22
sbag7
(g8
g9
NtRp882
(dp883
g12
g13
sg14
S'Papyrus'
p884
sg16
I400
sg17
g13
sg18
g13
sg19
S'C:\\WINDOWS\\Fonts\\PAPYRUS.TTF'
p885
sg21
g22
sbag7
(g8
g9
NtRp886
(dp887
g12
g13
sg14
S'Franklin Gothic Medium Cond'
p888
sg16
I500
sg17
g232
sg18
g13
sg19
S'C:\\WINDOWS\\Fonts\\FRAMDCN.TTF'
p889
sg21
g22
sbag7
(g8
g9
NtRp890
(dp891
g12
g13
sg14
S'Bodoni MT'
p892
sg16
I700
sg17
g13
sg18
g13
sg19
S'c:\\windows\\fonts\\bod_b.ttf'
p893
sg21
g22
sbag7
(g8
g9
NtRp894
(dp895
g12
g13
sg14
S'Georgia'
p896
sg16
I700
sg17
g13
sg18
g13
sg19
S'C:\\WINDOWS\\Fonts\\georgiab.ttf'
p897
sg21
g22
sbag7
(g8
g9
NtRp898
(dp899
g12
g13
sg14
S'Rockwell'
p900
sg16
I700
sg17
g13
sg18
g13
sg19
S'C:\\WINDOWS\\Fonts\\ROCKB.TTF'
p901
sg21
g22
sbag7
(g8
g9
NtRp902
(dp903
g12
g13
sg14
S'Century Schoolbook'
p904
sg16
I700
sg17
g13
sg18
g13
sg19
S'c:\\windows\\fonts\\schlbkb.ttf'
p905
sg21
g22
sbag7
(g8
g9
NtRp906
(dp907
g12
g50
sg14
S'Segoe UI'
p908
sg16
I400
sg17
g13
sg18
g13
sg19
S'C:\\WINDOWS\\Fonts\\seguisli.ttf'
p909
sg21
g22
sbag7
(g8
g9
NtRp910
(dp911
g12
g13
sg14
S'Arial'
p912
sg16
I700
sg17
g232
sg18
g13
sg19
S'C:\\WINDOWS\\Fonts\\ARIALNB.TTF'
p913
sg21
g22
sbag7
(g8
g9
NtRp914
(dp915
g12
g13
sg14
S'Chiller'
p916
sg16
I400
sg17
g13
sg18
g13
sg19
S'c:\\windows\\fonts\\chiller.ttf'
p917
sg21
g22
sbag7
(g8
g9
NtRp918
(dp919
g12
g13
sg14
S'Constantia'
p920
sg16
I400
sg17
g13
sg18
g13
sg19
S'c:\\windows\\fonts\\constan.ttf'
p921
sg21
g22
sbag7
(g8
g9
NtRp922
(dp923
g12
g13
sg14
S'Kunstler Script'
p924
sg16
I400
sg17
g13
sg18
g13
sg19
S'C:\\WINDOWS\\Fonts\\KUNSTLER.TTF'
p925
sg21
g22
sbag7
(g8
g9
NtRp926
(dp927
g12
g13
sg14
S'Malgun Gothic'
p928
sg16
I700
sg17
g13
sg18
g13
sg19
S'C:\\WINDOWS\\Fonts\\malgunbd.ttf'
p929
sg21
g22
sbag7
(g8
g9
NtRp930
(dp931
g12
g13
sg14
S'Trebuchet MS'
p932
sg16
I400
sg17
g13
sg18
g13
sg19
S'c:\\windows\\fonts\\trebuc.ttf'
p933
sg21
g22
sbag7
(g8
g9
NtRp934
(dp935
g12
g13
sg14
S'Gill Sans MT'
p936
sg16
I400
sg17
g13
sg18
g13
sg19
S'c:\\windows\\fonts\\gil_____.ttf'
p937
sg21
g22
sbag7
(g8
g9
NtRp938
(dp939
g12
g13
sg14
S'Centaur'
p940
sg16
I400
sg17
g13
sg18
g13
sg19
S'C:\\WINDOWS\\Fonts\\CENTAUR.TTF'
p941
sg21
g22
sbag7
(g8
g9
NtRp942
(dp943
g12
g50
sg14
S'Century Gothic'
p944
sg16
I700
sg17
g13
sg18
g13
sg19
S'C:\\WINDOWS\\Fonts\\GOTHICBI.TTF'
p945
sg21
g22
sbag7
(g8
g9
NtRp946
(dp947
g12
g50
sg14
S'Corbel'
p948
sg16
I700
sg17
g13
sg18
g13
sg19
S'C:\\WINDOWS\\Fonts\\corbelz.ttf'
p949
sg21
g22
sbag7
(g8
g9
NtRp950
(dp951
g12
g13
sg14
S'Californian FB'
p952
sg16
I400
sg17
g13
sg18
g13
sg19
S'c:\\windows\\fonts\\califr.ttf'
p953
sg21
g22
sbag7
(g8
g9
NtRp954
(dp955
g12
g13
sg14
S'Webdings'
p956
sg16
I400
sg17
g13
sg18
g13
sg19
S'C:\\WINDOWS\\Fonts\\webdings.ttf'
p957
sg21
g22
sbag7
(g8
g9
NtRp958
(dp959
g12
g13
sg14
S'Century Schoolbook'
p960
sg16
I400
sg17
g13
sg18
g13
sg19
S'c:\\windows\\fonts\\censcbk.ttf'
p961
sg21
g22
sbag7
(g8
g9
NtRp962
(dp963
g12
g13
sg14
S'Candara'
p964
sg16
I200
sg17
g13
sg18
g13
sg19
S'c:\\windows\\fonts\\candaral.ttf'
p965
sg21
g22
sbag7
(g8
g9
NtRp966
(dp967
g12
g13
sg14
S'Eras Demi ITC'
p968
sg16
I600
sg17
g13
sg18
g13
sg19
S'C:\\WINDOWS\\Fonts\\ERASDEMI.TTF'
p969
sg21
g22
sbag7
(g8
g9
NtRp970
(dp971
g12
g13
sg14
S'Bodoni MT'
p972
sg16
I400
sg17
g13
sg18
g13
sg19
S'C:\\WINDOWS\\Fonts\\BOD_R.TTF'
p973
sg21
g22
sbag7
(g8
g9
NtRp974
(dp975
g12
g50
sg14
S'Tw Cen MT'
p976
sg16
I700
sg17
g13
sg18
g13
sg19
S'c:\\windows\\fonts\\tcbi____.ttf'
p977
sg21
g22
sbag7
(g8
g9
NtRp978
(dp979
g12
g13
sg14
S'Segoe UI Emoji'
p980
sg16
I400
sg17
g13
sg18
g13
sg19
S'C:\\WINDOWS\\Fonts\\seguiemj.ttf'
p981
sg21
g22
sbag7
(g8
g9
NtRp982
(dp983
g12
g50
sg14
S'HP Simplified'
p984
sg16
I400
sg17
g13
sg18
g13
sg19
S'C:\\WINDOWS\\Fonts\\HPSimplified_It.ttf'
p985
sg21
g22
sbag7
(g8
g9
NtRp986
(dp987
g12
g13
sg14
S'Verdana'
p988
sg16
I700
sg17
g13
sg18
g13
sg19
S'c:\\windows\\fonts\\verdanab.ttf'
p989
sg21
g22
sbag7
(g8
g9
NtRp990
(dp991
g12
g50
sg14
S'Courier New'
p992
sg16
I700
sg17
g13
sg18
g13
sg19
S'c:\\windows\\fonts\\courbi.ttf'
p993
sg21
g22
sbag7
(g8
g9
NtRp994
(dp995
g12
g13
sg14
S'Microsoft PhagsPa'
p996
sg16
I400
sg17
g13
sg18
g13
sg19
S'c:\\windows\\fonts\\phagspa.ttf'
p997
sg21
g22
sbag7
(g8
g9
NtRp998
(dp999
g12
g13
sg14
S'Wingdings 3'
p1000
sg16
I400
sg17
g13
sg18
g13
sg19
S'c:\\windows\\fonts\\wingdng3.ttf'
p1001
sg21
g22
sbag7
(g8
g9
NtRp1002
(dp1003
g12
g13
sg14
S'Gill Sans MT Ext Condensed Bold'
p1004
sg16
I700
sg17
g232
sg18
g13
sg19
S'C:\\WINDOWS\\Fonts\\GLSNECB.TTF'
p1005
sg21
g22
sbag7
(g8
g9
NtRp1006
(dp1007
g12
g13
sg14
S'Calisto MT'
p1008
sg16
I700
sg17
g13
sg18
g13
sg19
S'c:\\windows\\fonts\\calistb.ttf'
p1009
sg21
g22
sbag7
(g8
g9
NtRp1010
(dp1011
g12
g13
sg14
S'SimSun-ExtB'
p1012
sg16
I400
sg17
g13
sg18
g13
sg19
S'C:\\WINDOWS\\Fonts\\simsunb.ttf'
p1013
sg21
g22
sbag7
(g8
g9
NtRp1014
(dp1015
g12
g50
sg14
S'Brush Script MT'
p1016
sg16
I400
sg17
g13
sg18
g13
sg19
S'C:\\WINDOWS\\Fonts\\BRUSHSCI.TTF'
p1017
sg21
g22
sbag7
(g8
g9
NtRp1018
(dp1019
g12
g50
sg14
S'Calisto MT'
p1020
sg16
I400
sg17
g13
sg18
g13
sg19
S'c:\\windows\\fonts\\calisti.ttf'
p1021
sg21
g22
sbag7
(g8
g9
NtRp1022
(dp1023
g12
g13
sg14
S'Viner Hand ITC'
p1024
sg16
I400
sg17
g13
sg18
g13
sg19
S'c:\\windows\\fonts\\vineritc.ttf'
p1025
sg21
g22
sbag7
(g8
g9
NtRp1026
(dp1027
g12
g13
sg14
S'Jokerman'
p1028
sg16
I400
sg17
g13
sg18
g13
sg19
S'c:\\windows\\fonts\\jokerman.ttf'
p1029
sg21
g22
sbag7
(g8
g9
NtRp1030
(dp1031
g12
g13
sg14
S'Lucida Bright'
p1032
sg16
I700
sg17
g13
sg18
g13
sg19
S'C:\\WINDOWS\\Fonts\\LBRITED.TTF'
p1033
sg21
g22
sbag7
(g8
g9
NtRp1034
(dp1035
g12
g13
sg14
S'Microsoft New Tai Lue'
p1036
sg16
I400
sg17
g13
sg18
g13
sg19
S'C:\\WINDOWS\\Fonts\\ntailu.ttf'
p1037
sg21
g22
sbag7
(g8
g9
NtRp1038
(dp1039
g12
g13
sg14
S'Blackadder ITC'
p1040
sg16
I900
sg17
g13
sg18
g13
sg19
S'c:\\windows\\fonts\\itcblkad.ttf'
p1041
sg21
g22
sbag7
(g8
g9
NtRp1042
(dp1043
g12
g13
sg14
S'Baskerville Old Face'
p1044
sg16
I400
sg17
g13
sg18
g13
sg19
S'c:\\windows\\fonts\\baskvill.ttf'
p1045
sg21
g22
sbag7
(g8
g9
NtRp1046
(dp1047
g12
g13
sg14
S'Malgun Gothic'
p1048
sg16
I200
sg17
g13
sg18
g13
sg19
S'c:\\windows\\fonts\\malgunsl.ttf'
p1049
sg21
g22
sbag7
(g8
g9
NtRp1050
(dp1051
g12
g13
sg14
S'Verdana'
p1052
sg16
I400
sg17
g13
sg18
g13
sg19
S'C:\\WINDOWS\\Fonts\\verdana.ttf'
p1053
sg21
g22
sbag7
(g8
g9
NtRp1054
(dp1055
g12
g50
sg14
S'Rockwell'
p1056
sg16
I400
sg17
g13
sg18
g13
sg19
S'c:\\windows\\fonts\\rocki.ttf'
p1057
sg21
g22
sbag7
(g8
g9
NtRp1058
(dp1059
g12
g50
sg14
S'Calisto MT'
p1060
sg16
I400
sg17
g13
sg18
g13
sg19
S'C:\\WINDOWS\\Fonts\\CALISTI.TTF'
p1061
sg21
g22
sbag7
(g8
g9
NtRp1062
(dp1063
g12
g13
sg14
S'Dubai'
p1064
sg16
I400
sg17
g13
sg18
g13
sg19
S'c:\\windows\\fonts\\dubai-regular.ttf'
p1065
sg21
g22
sbag7
(g8
g9
NtRp1066
(dp1067
g12
g13
sg14
S'Lucida Sans'
p1068
sg16
I400
sg17
g13
sg18
g13
sg19
S'c:\\windows\\fonts\\lsans.ttf'
p1069
sg21
g22
sbag7
(g8
g9
NtRp1070
(dp1071
g12
g13
sg14
S'Garamond'
p1072
sg16
I700
sg17
g13
sg18
g13
sg19
S'c:\\windows\\fonts\\garabd.ttf'
p1073
sg21
g22
sbag7
(g8
g9
NtRp1074
(dp1075
g12
g13
sg14
S'Segoe UI'
p1076
sg16
I400
sg17
g13
sg18
g13
sg19
S'c:\\windows\\fonts\\seguibl.ttf'
p1077
sg21
g22
sbag7
(g8
g9
NtRp1078
(dp1079
g12
g50
sg14
S'Corbel'
p1080
sg16
I400
sg17
g13
sg18
g13
sg19
S'C:\\WINDOWS\\Fonts\\corbeli.ttf'
p1081
sg21
g22
sbag7
(g8
g9
NtRp1082
(dp1083
g12
g13
sg14
S'Juice ITC'
p1084
sg16
I400
sg17
g13
sg18
g13
sg19
S'C:\\WINDOWS\\Fonts\\JUICE___.TTF'
p1085
sg21
g22
sbag7
(g8
g9
NtRp1086
(dp1087
g12
g50
sg14
S'Rockwell'
p1088
sg16
I400
sg17
g13
sg18
g13
sg19
S'C:\\WINDOWS\\Fonts\\ROCKI.TTF'
p1089
sg21
g22
sbag7
(g8
g9
NtRp1090
(dp1091
g12
g13
sg14
S'Nirmala UI'
p1092
sg16
I700
sg17
g13
sg18
g13
sg19
S'C:\\WINDOWS\\Fonts\\NirmalaB.ttf'
p1093
sg21
g22
sbag7
(g8
g9
NtRp1094
(dp1095
g12
g50
sg14
S'Lucida Bright'
p1096
sg16
I400
sg17
g13
sg18
g13
sg19
S'C:\\WINDOWS\\Fonts\\LBRITEI.TTF'
p1097
sg21
g22
sbag7
(g8
g9
NtRp1098
(dp1099
g12
g13
sg14
S'Calisto MT'
p1100
sg16
I400
sg17
g13
sg18
g13
sg19
S'c:\\windows\\fonts\\calist.ttf'
p1101
sg21
g22
sbag7
(g8
g9
NtRp1102
(dp1103
g12
g13
sg14
S'Curlz MT'
p1104
sg16
I400
sg17
g13
sg18
g13
sg19
S'c:\\windows\\fonts\\curlz___.ttf'
p1105
sg21
g22
sbag7
(g8
g9
NtRp1106
(dp1107
g12
g50
sg14
S'Arial'
p1108
sg16
I700
sg17
g13
sg18
g13
sg19
S'c:\\windows\\fonts\\arialbi.ttf'
p1109
sg21
g22
sbag7
(g8
g9
NtRp1110
(dp1111
g12
g50
sg14
S'Trebuchet MS'
p1112
sg16
I400
sg17
g13
sg18
g13
sg19
S'c:\\windows\\fonts\\trebucit.ttf'
p1113
sg21
g22
sbag7
(g8
g9
NtRp1114
(dp1115
g12
g13
sg14
S'Britannic Bold'
p1116
sg16
I700
sg17
g13
sg18
g13
sg19
S'c:\\windows\\fonts\\britanic.ttf'
p1117
sg21
g22
sbag7
(g8
g9
NtRp1118
(dp1119
g12
g13
sg14
S'Blackadder ITC'
p1120
sg16
I900
sg17
g13
sg18
g13
sg19
S'C:\\WINDOWS\\Fonts\\ITCBLKAD.TTF'
p1121
sg21
g22
sbag7
(g8
g9
NtRp1122
(dp1123
g12
g13
sg14
S'Courier New'
p1124
sg16
I700
sg17
g13
sg18
g13
sg19
S'c:\\windows\\fonts\\courbd.ttf'
p1125
sg21
g22
sbag7
(g8
g9
NtRp1126
(dp1127
g12
g13
sg14
S'Perpetua Titling MT'
p1128
sg16
I200
sg17
g13
sg18
g13
sg19
S'c:\\windows\\fonts\\pertili.ttf'
p1129
sg21
g22
sbag7
(g8
g9
NtRp1130
(dp1131
g12
g13
sg14
S'Palatino Linotype'
p1132
sg16
I700
sg17
g13
sg18
g13
sg19
S'C:\\WINDOWS\\Fonts\\palab.ttf'
p1133
sg21
g22
sbag7
(g8
g9
NtRp1134
(dp1135
g12
g50
sg14
S'Franklin Gothic Medium'
p1136
sg16
I500
sg17
g13
sg18
g13
sg19
S'c:\\windows\\fonts\\framdit.ttf'
p1137
sg21
g22
sbag7
(g8
g9
NtRp1138
(dp1139
g12
g13
sg14
S'Bauhaus 93'
p1140
sg16
I400
sg17
g13
sg18
g13
sg19
S'c:\\windows\\fonts\\bauhs93.ttf'
p1141
sg21
g22
sbag7
(g8
g9
NtRp1142
(dp1143
g12
g50
sg14
S'Lucida Calligraphy'
p1144
sg16
I400
sg17
g13
sg18
g13
sg19
S'c:\\windows\\fonts\\lcallig.ttf'
p1145
sg21
g22
sbag7
(g8
g9
NtRp1146
(dp1147
g12
g13
sg14
S'Tw Cen MT Condensed'
p1148
sg16
I400
sg17
g232
sg18
g13
sg19
S'C:\\WINDOWS\\Fonts\\TCCM____.TTF'
p1149
sg21
g22
sbag7
(g8
g9
NtRp1150
(dp1151
g12
g13
sg14
S'Century Schoolbook'
p1152
sg16
I700
sg17
g13
sg18
g13
sg19
S'C:\\WINDOWS\\Fonts\\SCHLBKB.TTF'
p1153
sg21
g22
sbag7
(g8
g9
NtRp1154
(dp1155
g12
g13
sg14
S'Gill Sans MT Condensed'
p1156
sg16
I400
sg17
g232
sg18
g13
sg19
S'C:\\WINDOWS\\Fonts\\GILC____.TTF'
p1157
sg21
g22
sbag7
(g8
g9
NtRp1158
(dp1159
g12
g13
sg14
S'Mongolian Baiti'
p1160
sg16
I400
sg17
g13
sg18
g13
sg19
S'C:\\WINDOWS\\Fonts\\monbaiti.ttf'
p1161
sg21
g22
sbag7
(g8
g9
NtRp1162
(dp1163
g12
g13
sg14
S'Colonna MT'
p1164
sg16
I400
sg17
g13
sg18
g13
sg19
S'c:\\windows\\fonts\\colonna.ttf'
p1165
sg21
g22
sbag7
(g8
g9
NtRp1166
(dp1167
g12
g13
sg14
S'Eras Bold ITC'
p1168
sg16
I700
sg17
g13
sg18
g13
sg19
S'c:\\windows\\fonts\\erasbd.ttf'
p1169
sg21
g22
sbag7
(g8
g9
NtRp1170
(dp1171
g12
g13
sg14
S'Microsoft Uighur'
p1172
sg16
I700
sg17
g13
sg18
g13
sg19
S'c:\\windows\\fonts\\msuighub.ttf'
p1173
sg21
g22
sbag7
(g8
g9
NtRp1174
(dp1175
g12
g50
sg14
S'Times New Roman'
p1176
sg16
I700
sg17
g13
sg18
g13
sg19
S'c:\\windows\\fonts\\timesbi.ttf'
p1177
sg21
g22
sbag7
(g8
g9
NtRp1178
(dp1179
g12
g13
sg14
S'Century'
p1180
sg16
I400
sg17
g13
sg18
g13
sg19
S'C:\\WINDOWS\\Fonts\\CENTURY.TTF'
p1181
sg21
g22
sbag7
(g8
g9
NtRp1182
(dp1183
g12
g13
sg14
S'Comic Sans MS'
p1184
sg16
I700
sg17
g13
sg18
g13
sg19
S'c:\\windows\\fonts\\comicbd.ttf'
p1185
sg21
g22
sbag7
(g8
g9
NtRp1186
(dp1187
g12
g13
sg14
S'Candara'
p1188
sg16
I700
sg17
g13
sg18
g13
sg19
S'c:\\windows\\fonts\\candarab.ttf'
p1189
sg21
g22
sbag7
(g8
g9
NtRp1190
(dp1191
g12
g13
sg14
S'Poor Richard'
p1192
sg16
I400
sg17
g13
sg18
g13
sg19
S'C:\\WINDOWS\\Fonts\\POORICH.TTF'
p1193
sg21
g22
sbag7
(g8
g9
NtRp1194
(dp1195
g12
g13
sg14
S'Tempus Sans ITC'
p1196
sg16
I400
sg17
g13
sg18
g13
sg19
S'c:\\windows\\fonts\\tempsitc.ttf'
p1197
sg21
g22
sbag7
(g8
g9
NtRp1198
(dp1199
g12
g13
sg14
S'Showcard Gothic'
p1200
sg16
I400
sg17
g13
sg18
g13
sg19
S'C:\\WINDOWS\\Fonts\\SHOWG.TTF'
p1201
sg21
g22
sbag7
(g8
g9
NtRp1202
(dp1203
g12
g41
sg14
S'Lucida Sans Typewriter'
p1204
sg16
I400
sg17
g13
sg18
g13
sg19
S'c:\\windows\\fonts\\ltypeo.ttf'
p1205
sg21
g22
sbag7
(g8
g9
NtRp1206
(dp1207
g12
g50
sg14
S'Bell MT'
p1208
sg16
I400
sg17
g13
sg18
g13
sg19
S'C:\\WINDOWS\\Fonts\\BELLI.TTF'
p1209
sg21
g22
sbag7
(g8
g9
NtRp1210
(dp1211
g12
g13
sg14
S'Goudy Stout'
p1212
sg16
I400
sg17
g13
sg18
g13
sg19
S'c:\\windows\\fonts\\goudysto.ttf'
p1213
sg21
g22
sbag7
(g8
g9
NtRp1214
(dp1215
g12
g50
sg14
S'HP Simplified'
p1216
sg16
I200
sg17
g13
sg18
g13
sg19
S'c:\\windows\\fonts\\hpsimplified_ltit.ttf'
p1217
sg21
g22
sbag7
(g8
g9
NtRp1218
(dp1219
g12
g13
sg14
S'Book Antiqua'
p1220
sg16
I700
sg17
g13
sg18
g13
sg19
S'c:\\windows\\fonts\\antquab.ttf'
p1221
sg21
g22
sbag7
(g8
g9
NtRp1222
(dp1223
g12
g13
sg14
S'Calibri'
p1224
sg16
I200
sg17
g13
sg18
g13
sg19
S'C:\\WINDOWS\\Fonts\\calibril.ttf'
p1225
sg21
g22
sbag7
(g8
g9
NtRp1226
(dp1227
g12
g50
sg14
S'Lucida Sans'
p1228
sg16
I700
sg17
g13
sg18
g13
sg19
S'C:\\WINDOWS\\Fonts\\LSANSDI.TTF'
p1229
sg21
g22
sbag7
(g8
g9
NtRp1230
(dp1231
g12
g13
sg14
S'Segoe UI'
p1232
sg16
I400
sg17
g13
sg18
g13
sg19
S'C:\\WINDOWS\\Fonts\\segoeuil.ttf'
p1233
sg21
g22
sbag7
(g8
g9
NtRp1234
(dp1235
g12
g13
sg14
S'Gill Sans MT Ext Condensed Bold'
p1236
sg16
I700
sg17
g232
sg18
g13
sg19
S'c:\\windows\\fonts\\glsnecb.ttf'
p1237
sg21
g22
sbag7
(g8
g9
NtRp1238
(dp1239
g12
g13
sg14
S'Lucida Sans Typewriter'
p1240
sg16
I400
sg17
g13
sg18
g13
sg19
S'C:\\WINDOWS\\Fonts\\LTYPE.TTF'
p1241
sg21
g22
sbag7
(g8
g9
NtRp1242
(dp1243
g12
g50
sg14
S'Constantia'
p1244
sg16
I700
sg17
g13
sg18
g13
sg19
S'C:\\WINDOWS\\Fonts\\constanz.ttf'
p1245
sg21
g22
sbag7
(g8
g9
NtRp1246
(dp1247
g12
g13
sg14
S'Franklin Gothic Book'
p1248
sg16
I400
sg17
g13
sg18
g13
sg19
S'c:\\windows\\fonts\\frabk.ttf'
p1249
sg21
g22
sbag7
(g8
g9
NtRp1250
(dp1251
g12
g41
sg14
S'Lucida Sans Typewriter'
p1252
sg16
I400
sg17
g13
sg18
g13
sg19
S'C:\\WINDOWS\\Fonts\\LTYPEO.TTF'
p1253
sg21
g22
sbag7
(g8
g9
NtRp1254
(dp1255
g12
g13
sg14
S'Microsoft Himalaya'
p1256
sg16
I400
sg17
g13
sg18
g13
sg19
S'C:\\WINDOWS\\Fonts\\himalaya.ttf'
p1257
sg21
g22
sbag7
(g8
g9
NtRp1258
(dp1259
g12
g13
sg14
S'Franklin Gothic Heavy'
p1260
sg16
I800
sg17
g13
sg18
g13
sg19
S'C:\\WINDOWS\\Fonts\\FRAHV.TTF'
p1261
sg21
g22
sbag7
(g8
g9
NtRp1262
(dp1263
g12
g13
sg14
S'Goudy Old Style'
p1264
sg16
I700
sg17
g13
sg18
g13
sg19
S'c:\\windows\\fonts\\goudosb.ttf'
p1265
sg21
g22
sbag7
(g8
g9
NtRp1266
(dp1267
g12
g13
sg14
S'Eras Light ITC'
p1268
sg16
I200
sg17
g13
sg18
g13
sg19
S'c:\\windows\\fonts\\eraslght.ttf'
p1269
sg21
g22
sbag7
(g8
g9
NtRp1270
(dp1271
g12
g50
sg14
S'Book Antiqua'
p1272
sg16
I700
sg17
g13
sg18
g13
sg19
S'C:\\WINDOWS\\Fonts\\ANTQUABI.TTF'
p1273
sg21
g22
sbag7
(g8
g9
NtRp1274
(dp1275
g12
g13
sg14
S'Perpetua Titling MT'
p1276
sg16
I700
sg17
g13
sg18
g13
sg19
S'c:\\windows\\fonts\\pertibd.ttf'
p1277
sg21
g22
sbag7
(g8
g9
NtRp1278
(dp1279
g12
g50
sg14
S'Elephant'
p1280
sg16
I400
sg17
g13
sg18
g13
sg19
S'c:\\windows\\fonts\\elephnti.ttf'
p1281
sg21
g22
sbag7
(g8
g9
NtRp1282
(dp1283
g12
g50
sg14
S'Century Gothic'
p1284
sg16
I700
sg17
g13
sg18
g13
sg19
S'c:\\windows\\fonts\\gothicbi.ttf'
p1285
sg21
g22
sbag7
(g8
g9
NtRp1286
(dp1287
g12
g13
sg14
S'Harrington'
p1288
sg16
I400
sg17
g13
sg18
g13
sg19
S'c:\\windows\\fonts\\harngton.ttf'
p1289
sg21
g22
sbag7
(g8
g9
NtRp1290
(dp1291
g12
g50
sg14
S'Calibri'
p1292
sg16
I700
sg17
g13
sg18
g13
sg19
S'c:\\windows\\fonts\\calibriz.ttf'
p1293
sg21
g22
sbag7
(g8
g9
NtRp1294
(dp1295
g12
g13
sg14
S'Californian FB'
p1296
sg16
I400
sg17
g13
sg18
g13
sg19
S'C:\\WINDOWS\\Fonts\\CALIFR.TTF'
p1297
sg21
g22
sbag7
(g8
g9
NtRp1298
(dp1299
g12
g13
sg14
S'Bookman Old Style'
p1300
sg16
I700
sg17
g13
sg18
g13
sg19
S'C:\\WINDOWS\\Fonts\\BOOKOSB.TTF'
p1301
sg21
g22
sbag7
(g8
g9
NtRp1302
(dp1303
g12
g13
sg14
S'Cooper Black'
p1304
sg16
I900
sg17
g13
sg18
g13
sg19
S'C:\\WINDOWS\\Fonts\\COOPBL.TTF'
p1305
sg21
g22
sbag7
(g8
g9
NtRp1306
(dp1307
g12
g13
sg14
S'Felix Titling'
p1308
sg16
I400
sg17
g13
sg18
g13
sg19
S'C:\\WINDOWS\\Fonts\\FELIXTI.TTF'
p1309
sg21
g22
sbag7
(g8
g9
NtRp1310
(dp1311
g12
g13
sg14
S'Gill Sans MT'
p1312
sg16
I700
sg17
g13
sg18
g13
sg19
S'C:\\WINDOWS\\Fonts\\GILB____.TTF'
p1313
sg21
g22
sbag7
(g8
g9
NtRp1314
(dp1315
g12
g50
sg14
S'Garamond'
p1316
sg16
I400
sg17
g13
sg18
g13
sg19
S'c:\\windows\\fonts\\garait.ttf'
p1317
sg21
g22
sbag7
(g8
g9
NtRp1318
(dp1319
g12
g13
sg14
S'Calisto MT'
p1320
sg16
I700
sg17
g13
sg18
g13
sg19
S'C:\\WINDOWS\\Fonts\\CALISTB.TTF'
p1321
sg21
g22
sbag7
(g8
g9
NtRp1322
(dp1323
g12
g50
sg14
S'Century Schoolbook'
p1324
sg16
I400
sg17
g13
sg18
g13
sg19
S'C:\\WINDOWS\\Fonts\\SCHLBKI.TTF'
p1325
sg21
g22
sbag7
(g8
g9
NtRp1326
(dp1327
g12
g13
sg14
S'Nirmala UI'
p1328
sg16
I700
sg17
g13
sg18
g13
sg19
S'c:\\windows\\fonts\\nirmalab.ttf'
p1329
sg21
g22
sbag7
(g8
g9
NtRp1330
(dp1331
g12
g13
sg14
S'Gigi'
p1332
sg16
I400
sg17
g13
sg18
g13
sg19
S'C:\\WINDOWS\\Fonts\\GIGI.TTF'
p1333
sg21
g22
sbag7
(g8
g9
NtRp1334
(dp1335
g12
g13
sg14
S'Century'
p1336
sg16
I400
sg17
g13
sg18
g13
sg19
S'c:\\windows\\fonts\\century.ttf'
p1337
sg21
g22
sbag7
(g8
g9
NtRp1338
(dp1339
g12
g13
sg14
S'Copperplate Gothic Light'
p1340
sg16
I200
sg17
g13
sg18
g13
sg19
S'c:\\windows\\fonts\\coprgtl.ttf'
p1341
sg21
g22
sbag7
(g8
g9
NtRp1342
(dp1343
g12
g13
sg14
S'Gill Sans MT'
p1344
sg16
I700
sg17
g13
sg18
g13
sg19
S'c:\\windows\\fonts\\gilb____.ttf'
p1345
sg21
g22
sbag7
(g8
g9
NtRp1346
(dp1347
g12
g13
sg14
S'Arial'
p1348
sg16
I700
sg17
g232
sg18
g13
sg19
S'c:\\windows\\fonts\\arialnb.ttf'
p1349
sg21
g22
sbag7
(g8
g9
NtRp1350
(dp1351
g12
g13
sg14
S'MS Outlook'
p1352
sg16
I400
sg17
g13
sg18
g13
sg19
S'c:\\windows\\fonts\\outlook.ttf'
p1353
sg21
g22
sbag7
(g8
g9
NtRp1354
(dp1355
g12
g13
sg14
S'Bookshelf Symbol 7'
p1356
sg16
I400
sg17
g13
sg18
g13
sg19
S'C:\\WINDOWS\\Fonts\\BSSYM7.TTF'
p1357
sg21
g22
sbag7
(g8
g9
NtRp1358
(dp1359
g12
g50
sg14
S'Lucida Fax'
p1360
sg16
I700
sg17
g13
sg18
g13
sg19
S'c:\\windows\\fonts\\lfaxdi.ttf'
p1361
sg21
g22
sbag7
(g8
g9
NtRp1362
(dp1363
g12
g13
sg14
S'Candara'
p1364
sg16
I400
sg17
g13
sg18
g13
sg19
S'c:\\windows\\fonts\\candara.ttf'
p1365
sg21
g22
sbag7
(g8
g9
NtRp1366
(dp1367
g12
g13
sg14
S'Arial Rounded MT Bold'
p1368
sg16
I700
sg17
g13
sg18
g13
sg19
S'C:\\WINDOWS\\Fonts\\ARLRDBD.TTF'
p1369
sg21
g22
sbag7
(g8
g9
NtRp1370
(dp1371
g12
g50
sg14
S'Vivaldi'
p1372
sg16
I400
sg17
g13
sg18
g13
sg19
S'C:\\WINDOWS\\Fonts\\VIVALDII.TTF'
p1373
sg21
g22
sbag7
(g8
g9
NtRp1374
(dp1375
g12
g13
sg14
S'Lucida Fax'
p1376
sg16
I400
sg17
g13
sg18
g13
sg19
S'c:\\windows\\fonts\\lfax.ttf'
p1377
sg21
g22
sbag7
(g8
g9
NtRp1378
(dp1379
g12
g13
sg14
S'Candara'
p1380
sg16
I200
sg17
g13
sg18
g13
sg19
S'C:\\WINDOWS\\Fonts\\Candaral.ttf'
p1381
sg21
g22
sbag7
(g8
g9
NtRp1382
(dp1383
g12
g50
sg14
S'Calibri'
p1384
sg16
I400
sg17
g13
sg18
g13
sg19
S'C:\\WINDOWS\\Fonts\\calibrii.ttf'
p1385
sg21
g22
sbag7
(g8
g9
NtRp1386
(dp1387
g12
g13
sg14
S'Franklin Gothic Demi Cond'
p1388
sg16
I600
sg17
g232
sg18
g13
sg19
S'C:\\WINDOWS\\Fonts\\FRADMCN.TTF'
p1389
sg21
g22
sbag7
(g8
g9
NtRp1390
(dp1391
g12
g13
sg14
S'Script MT Bold'
p1392
sg16
I700
sg17
g13
sg18
g13
sg19
S'C:\\WINDOWS\\Fonts\\SCRIPTBL.TTF'
p1393
sg21
g22
sbag7
(g8
g9
NtRp1394
(dp1395
g12
g13
sg14
S'Haettenschweiler'
p1396
sg16
I400
sg17
g13
sg18
g13
sg19
S'c:\\windows\\fonts\\hatten.ttf'
p1397
sg21
g22
sbag7
(g8
g9
NtRp1398
(dp1399
g12
g13
sg14
S'Segoe UI Symbol'
p1400
sg16
I400
sg17
g13
sg18
g13
sg19
S'C:\\WINDOWS\\Fonts\\seguisym.ttf'
p1401
sg21
g22
sbag7
(g8
g9
NtRp1402
(dp1403
g12
g13
sg14
S'Magneto'
p1404
sg16
I700
sg17
g13
sg18
g13
sg19
S'C:\\WINDOWS\\Fonts\\MAGNETOB.TTF'
p1405
sg21
g22
sbag7
(g8
g9
NtRp1406
(dp1407
g12
g13
sg14
S'Tw Cen MT'
p1408
sg16
I700
sg17
g13
sg18
g13
sg19
S'C:\\WINDOWS\\Fonts\\TCB_____.TTF'
p1409
sg21
g22
sbag7
(g8
g9
NtRp1410
(dp1411
g12
g13
sg14
S'Leelawadee UI'
p1412
sg16
I400
sg17
g13
sg18
g13
sg19
S'C:\\WINDOWS\\Fonts\\LeelUIsl.ttf'
p1413
sg21
g22
sbag7
(g8
g9
NtRp1414
(dp1415
g12
g13
sg14
S'Berlin Sans FB'
p1416
sg16
I400
sg17
g13
sg18
g13
sg19
S'c:\\windows\\fonts\\brlnsr.ttf'
p1417
sg21
g22
sbag7
(g8
g9
NtRp1418
(dp1419
g12
g13
sg14
S'Rockwell Condensed'
p1420
sg16
I400
sg17
g232
sg18
g13
sg19
S'C:\\WINDOWS\\Fonts\\ROCC____.TTF'
p1421
sg21
g22
sbag7
(g8
g9
NtRp1422
(dp1423
g12
g13
sg14
S'Microsoft Yi Baiti'
p1424
sg16
I400
sg17
g13
sg18
g13
sg19
S'c:\\windows\\fonts\\msyi.ttf'
p1425
sg21
g22
sbag7
(g8
g9
NtRp1426
(dp1427
g12
g13
sg14
S'Wingdings'
p1428
sg16
I400
sg17
g13
sg18
g13
sg19
S'c:\\windows\\fonts\\wingding.ttf'
p1429
sg21
g22
sbag7
(g8
g9
NtRp1430
(dp1431
g12
g13
sg14
S'Microsoft Uighur'
p1432
sg16
I700
sg17
g13
sg18
g13
sg19
S'C:\\WINDOWS\\Fonts\\MSUIGHUB.TTF'
p1433
sg21
g22
sbag7
(g8
g9
NtRp1434
(dp1435
g12
g13
sg14
S'Leelawadee'
p1436
sg16
I400
sg17
g13
sg18
g13
sg19
S'C:\\WINDOWS\\Fonts\\LEELAWAD.TTF'
p1437
sg21
g22
sbag7
(g8
g9
NtRp1438
(dp1439
g12
g13
sg14
S'Bell MT'
p1440
sg16
I400
sg17
g13
sg18
g13
sg19
S'c:\\windows\\fonts\\bell.ttf'
p1441
sg21
g22
sbag7
(g8
g9
NtRp1442
(dp1443
g12
g13
sg14
S'MT Extra'
p1444
sg16
I400
sg17
g13
sg18
g13
sg19
S'C:\\WINDOWS\\Fonts\\MTEXTRA.TTF'
p1445
sg21
g22
sbag7
(g8
g9
NtRp1446
(dp1447
g12
g13
sg14
S'HP Simplified'
p1448
sg16
I200
sg17
g13
sg18
g13
sg19
S'c:\\windows\\fonts\\hpsimplified_lt.ttf'
p1449
sg21
g22
sbag7
(g8
g9
NtRp1450
(dp1451
g12
g13
sg14
S'Jokerman'
p1452
sg16
I400
sg17
g13
sg18
g13
sg19
S'C:\\WINDOWS\\Fonts\\JOKERMAN.TTF'
p1453
sg21
g22
sbag7
(g8
g9
NtRp1454
(dp1455
g12
g13
sg14
S'Dubai'
p1456
sg16
I200
sg17
g13
sg18
g13
sg19
S'c:\\windows\\fonts\\dubai-light.ttf'
p1457
sg21
g22
sbag7
(g8
g9
NtRp1458
(dp1459
g12
g13
sg14
S'Tw Cen MT'
p1460
sg16
I400
sg17
g13
sg18
g13
sg19
S'C:\\WINDOWS\\Fonts\\TCM_____.TTF'
p1461
sg21
g22
sbag7
(g8
g9
NtRp1462
(dp1463
g12
g13
sg14
S'Segoe Script'
p1464
sg16
I700
sg17
g13
sg18
g13
sg19
S'c:\\windows\\fonts\\segoescb.ttf'
p1465
sg21
g22
sbag7
(g8
g9
NtRp1466
(dp1467
g12
g13
sg14
S'Juice ITC'
p1468
sg16
I400
sg17
g13
sg18
g13
sg19
S'c:\\windows\\fonts\\juice___.ttf'
p1469
sg21
g22
sbag7
(g8
g9
NtRp1470
(dp1471
g12
g13
sg14
S'Perpetua'
p1472
sg16
I700
sg17
g13
sg18
g13
sg19
S'C:\\WINDOWS\\Fonts\\PERB____.TTF'
p1473
sg21
g22
sbag7
(g8
g9
NtRp1474
(dp1475
g12
g13
sg14
S'Franklin Gothic Medium Cond'
p1476
sg16
I500
sg17
g232
sg18
g13
sg19
S'c:\\windows\\fonts\\framdcn.ttf'
p1477
sg21
g22
sbag7
(g8
g9
NtRp1478
(dp1479
g12
g50
sg14
S'Tw Cen MT'
p1480
sg16
I700
sg17
g13
sg18
g13
sg19
S'C:\\WINDOWS\\Fonts\\TCBI____.TTF'
p1481
sg21
g22
sbag7
(g8
g9
NtRp1482
(dp1483
g12
g50
sg14
S'Rage Italic'
p1484
sg16
I400
sg17
g13
sg18
g13
sg19
S'C:\\WINDOWS\\Fonts\\RAGE.TTF'
p1485
sg21
g22
sbag7
(g8
g9
NtRp1486
(dp1487
g12
g50
sg14
S'Brush Script MT'
p1488
sg16
I400
sg17
g13
sg18
g13
sg19
S'c:\\windows\\fonts\\brushsci.ttf'
p1489
sg21
g22
sbag7
(g8
g9
NtRp1490
(dp1491
g12
g13
sg14
S'Candara'
p1492
sg16
I400
sg17
g13
sg18
g13
sg19
S'C:\\WINDOWS\\Fonts\\Candara.ttf'
p1493
sg21
g22
sbag7
(g8
g9
NtRp1494
(dp1495
g12
g13
sg14
S'Freestyle Script'
p1496
sg16
I400
sg17
g13
sg18
g13
sg19
S'c:\\windows\\fonts\\freescpt.ttf'
p1497
sg21
g22
sbag7
(g8
g9
NtRp1498
(dp1499
g12
g50
sg14
S'Bodoni MT'
p1500
sg16
I400
sg17
g232
sg18
g13
sg19
S'c:\\windows\\fonts\\bod_ci.ttf'
p1501
sg21
g22
sbag7
(g8
g9
NtRp1502
(dp1503
g12
g13
sg14
S'Gill Sans Ultra Bold'
p1504
sg16
I700
sg17
g13
sg18
g13
sg19
S'c:\\windows\\fonts\\gilsanub.ttf'
p1505
sg21
g22
sbag7
(g8
g9
NtRp1506
(dp1507
g12
g13
sg14
S'Gigi'
p1508
sg16
I400
sg17
g13
sg18
g13
sg19
S'c:\\windows\\fonts\\gigi.ttf'
p1509
sg21
g22
sbag7
(g8
g9
NtRp1510
(dp1511
g12
g50
sg14
S'Lucida Calligraphy'
p1512
sg16
I400
sg17
g13
sg18
g13
sg19
S'C:\\WINDOWS\\Fonts\\LCALLIG.TTF'
p1513
sg21
g22
sbag7
(g8
g9
NtRp1514
(dp1515
g12
g13
sg14
S'Bodoni MT'
p1516
sg16
I700
sg17
g13
sg18
g13
sg19
S'C:\\WINDOWS\\Fonts\\BOD_B.TTF'
p1517
sg21
g22
sbag7
(g8
g9
NtRp1518
(dp1519
g12
g13
sg14
S'Baskerville Old Face'
p1520
sg16
I400
sg17
g13
sg18
g13
sg19
S'C:\\WINDOWS\\Fonts\\BASKVILL.TTF'
p1521
sg21
g22
sbag7
(g8
g9
NtRp1522
(dp1523
g12
g13
sg14
S'Wide Latin'
p1524
sg16
I400
sg17
S'expanded'
p1525
sg18
g13
sg19
S'c:\\windows\\fonts\\latinwd.ttf'
p1526
sg21
g22
sbag7
(g8
g9
NtRp1527
(dp1528
g12
g13
sg14
S'High Tower Text'
p1529
sg16
I400
sg17
g13
sg18
g13
sg19
S'c:\\windows\\fonts\\htowert.ttf'
p1530
sg21
g22
sbag7
(g8
g9
NtRp1531
(dp1532
g12
g13
sg14
S'Papyrus'
p1533
sg16
I400
sg17
g13
sg18
g13
sg19
S'c:\\windows\\fonts\\papyrus.ttf'
p1534
sg21
g22
sbag7
(g8
g9
NtRp1535
(dp1536
g12
g50
sg14
S'Lucida Bright'
p1537
sg16
I700
sg17
g13
sg18
g13
sg19
S'c:\\windows\\fonts\\lbritedi.ttf'
p1538
sg21
g22
sbag7
(g8
g9
NtRp1539
(dp1540
g12
g50
sg14
S'Arial'
p1541
sg16
I400
sg17
g232
sg18
g13
sg19
S'C:\\WINDOWS\\Fonts\\ARIALNI.TTF'
p1542
sg21
g22
sbag7
(g8
g9
NtRp1543
(dp1544
g12
g50
sg14
S'Bodoni MT'
p1545
sg16
I400
sg17
g232
sg18
g13
sg19
S'C:\\WINDOWS\\Fonts\\BOD_CI.TTF'
p1546
sg21
g22
sbag7
(g8
g9
NtRp1547
(dp1548
g12
g13
sg14
S'HP Simplified'
p1549
sg16
I400
sg17
g13
sg18
g13
sg19
S'C:\\WINDOWS\\Fonts\\HPSimplified_Rg.ttf'
p1550
sg21
g22
sbag7
(g8
g9
NtRp1551
(dp1552
g12
g13
sg14
S'Elephant'
p1553
sg16
I400
sg17
g13
sg18
g13
sg19
S'c:\\windows\\fonts\\elephnt.ttf'
p1554
sg21
g22
sbag7
(g8
g9
NtRp1555
(dp1556
g12
g50
sg14
S'Century Schoolbook'
p1557
sg16
I700
sg17
g13
sg18
g13
sg19
S'C:\\WINDOWS\\Fonts\\SCHLBKBI.TTF'
p1558
sg21
g22
sbag7
(g8
g9
NtRp1559
(dp1560
g12
g13
sg14
S'Bradley Hand ITC'
p1561
sg16
I400
sg17
g13
sg18
g13
sg19
S'C:\\WINDOWS\\Fonts\\BRADHITC.TTF'
p1562
sg21
g22
sbag7
(g8
g9
NtRp1563
(dp1564
g12
g13
sg14
S'Franklin Gothic Demi Cond'
p1565
sg16
I600
sg17
g232
sg18
g13
sg19
S'c:\\windows\\fonts\\fradmcn.ttf'
p1566
sg21
g22
sbag7
(g8
g9
NtRp1567
(dp1568
g12
g50
sg14
S'Bookman Old Style'
p1569
sg16
I700
sg17
g13
sg18
g13
sg19
S'c:\\windows\\fonts\\bookosbi.ttf'
p1570
sg21
g22
sbag7
(g8
g9
NtRp1571
(dp1572
g12
g13
sg14
S'Viner Hand ITC'
p1573
sg16
I400
sg17
g13
sg18
g13
sg19
S'C:\\WINDOWS\\Fonts\\VINERITC.TTF'
p1574
sg21
g22
sbag7
(g8
g9
NtRp1575
(dp1576
g12
g13
sg14
S'Calisto MT'
p1577
sg16
I400
sg17
g13
sg18
g13
sg19
S'C:\\WINDOWS\\Fonts\\CALIST.TTF'
p1578
sg21
g22
sbag7
(g8
g9
NtRp1579
(dp1580
g12
g13
sg14
S'Pristina'
p1581
sg16
I400
sg17
g13
sg18
g13
sg19
S'C:\\WINDOWS\\Fonts\\PRISTINA.TTF'
p1582
sg21
g22
sbag7
(g8
g9
NtRp1583
(dp1584
g12
g13
sg14
S'Bauhaus 93'
p1585
sg16
I400
sg17
g13
sg18
g13
sg19
S'C:\\WINDOWS\\Fonts\\BAUHS93.TTF'
p1586
sg21
g22
sbag7
(g8
g9
NtRp1587
(dp1588
g12
g13
sg14
S'MV Boli'
p1589
sg16
I400
sg17
g13
sg18
g13
sg19
S'C:\\WINDOWS\\Fonts\\mvboli.ttf'
p1590
sg21
g22
sbag7
(g8
g9
NtRp1591
(dp1592
g12
g13
sg14
S'Vladimir Script'
p1593
sg16
I400
sg17
g13
sg18
g13
sg19
S'C:\\WINDOWS\\Fonts\\VLADIMIR.TTF'
p1594
sg21
g22
sbag7
(g8
g9
NtRp1595
(dp1596
g12
g13
sg14
S'Ravie'
p1597
sg16
I400
sg17
g13
sg18
g13
sg19
S'C:\\WINDOWS\\Fonts\\RAVIE.TTF'
p1598
sg21
g22
sbag7
(g8
g9
NtRp1599
(dp1600
g12
g13
sg14
S'Malgun Gothic'
p1601
sg16
I400
sg17
g13
sg18
g13
sg19
S'C:\\WINDOWS\\Fonts\\malgun.ttf'
p1602
sg21
g22
sbag7
(g8
g9
NtRp1603
(dp1604
g12
g50
sg14
S'Perpetua'
p1605
sg16
I400
sg17
g13
sg18
g13
sg19
S'C:\\WINDOWS\\Fonts\\PERI____.TTF'
p1606
sg21
g22
sbag7
(g8
g9
NtRp1607
(dp1608
g12
g50
sg14
S'Lucida Bright'
p1609
sg16
I700
sg17
g13
sg18
g13
sg19
S'C:\\WINDOWS\\Fonts\\LBRITEDI.TTF'
p1610
sg21
g22
sbag7
(g8
g9
NtRp1611
(dp1612
g12
g13
sg14
S'Rockwell'
p1613
sg16
I400
sg17
g13
sg18
g13
sg19
S'c:\\windows\\fonts\\rock.ttf'
p1614
sg21
g22
sbag7
(g8
g9
NtRp1615
(dp1616
g12
g13
sg14
S'Dubai'
p1617
sg16
I400
sg17
g13
sg18
g13
sg19
S'C:\\WINDOWS\\Fonts\\DUBAI-REGULAR.TTF'
p1618
sg21
g22
sbag7
(g8
g9
NtRp1619
(dp1620
g12
g50
sg14
S'Lucida Sans'
p1621
sg16
I700
sg17
g13
sg18
g13
sg19
S'c:\\windows\\fonts\\lsansdi.ttf'
p1622
sg21
g22
sbag7
(g8
g9
NtRp1623
(dp1624
g12
g13
sg14
S'Tw Cen MT'
p1625
sg16
I700
sg17
g13
sg18
g13
sg19
S'c:\\windows\\fonts\\tcb_____.ttf'
p1626
sg21
g22
sbag7
(g8
g9
NtRp1627
(dp1628
g12
g13
sg14
S'Marlett'
p1629
sg16
I400
sg17
g13
sg18
g13
sg19
S'C:\\WINDOWS\\Fonts\\marlett.ttf'
p1630
sg21
g22
sbag7
(g8
g9
NtRp1631
(dp1632
g12
g50
sg14
S'Rockwell'
p1633
sg16
I700
sg17
g13
sg18
g13
sg19
S'c:\\windows\\fonts\\rockbi.ttf'
p1634
sg21
g22
sbag7
(g8
g9
NtRp1635
(dp1636
g12
g50
sg14
S'Goudy Old Style'
p1637
sg16
I400
sg17
g13
sg18
g13
sg19
S'C:\\WINDOWS\\Fonts\\GOUDOSI.TTF'
p1638
sg21
g22
sbag7
(g8
g9
NtRp1639
(dp1640
g12
g13
sg14
S'Lucida Fax'
p1641
sg16
I700
sg17
g13
sg18
g13
sg19
S'C:\\WINDOWS\\Fonts\\LFAXD.TTF'
p1642
sg21
g22
sbag7
(g8
g9
NtRp1643
(dp1644
g12
g13
sg14
S'Franklin Gothic Book'
p1645
sg16
I400
sg17
g13
sg18
g13
sg19
S'C:\\WINDOWS\\Fonts\\FRABK.TTF'
p1646
sg21
g22
sbag7
(g8
g9
NtRp1647
(dp1648
g12
g13
sg14
S'Niagara Solid'
p1649
sg16
I400
sg17
g13
sg18
g13
sg19
S'c:\\windows\\fonts\\niagsol.ttf'
p1650
sg21
g22
sbag7
(g8
g9
NtRp1651
(dp1652
g12
g13
sg14
S'Informal Roman'
p1653
sg16
I500
sg17
g13
sg18
g13
sg19
S'C:\\WINDOWS\\Fonts\\INFROMAN.TTF'
p1654
sg21
g22
sbag7
(g8
g9
NtRp1655
(dp1656
g12
g13
sg14
S'Gill Sans Ultra Bold'
p1657
sg16
I700
sg17
g13
sg18
g13
sg19
S'C:\\WINDOWS\\Fonts\\GILSANUB.TTF'
p1658
sg21
g22
sbag7
(g8
g9
NtRp1659
(dp1660
g12
g13
sg14
S'Leelawadee'
p1661
sg16
I700
sg17
g13
sg18
g13
sg19
S'C:\\WINDOWS\\Fonts\\LEELAWDB.TTF'
p1662
sg21
g22
sbag7
(g8
g9
NtRp1663
(dp1664
g12
g13
sg14
S'Engravers MT'
p1665
sg16
I400
sg17
g13
sg18
g13
sg19
S'C:\\WINDOWS\\Fonts\\ENGR.TTF'
p1666
sg21
g22
sbag7
(g8
g9
NtRp1667
(dp1668
g12
g50
sg14
S'Candara'
p1669
sg16
I400
sg17
g13
sg18
g13
sg19
S'C:\\WINDOWS\\Fonts\\Candarai.ttf'
p1670
sg21
g22
sbag7
(g8
g9
NtRp1671
(dp1672
g12
g13
sg14
S'Microsoft Uighur'
p1673
sg16
I400
sg17
g13
sg18
g13
sg19
S'c:\\windows\\fonts\\msuighur.ttf'
p1674
sg21
g22
sbag7
(g8
g9
NtRp1675
(dp1676
g12
g13
sg14
S'MS Outlook'
p1677
sg16
I400
sg17
g13
sg18
g13
sg19
S'C:\\WINDOWS\\Fonts\\OUTLOOK.TTF'
p1678
sg21
g22
sbag7
(g8
g9
NtRp1679
(dp1680
g12
g13
sg14
S'Wingdings 3'
p1681
sg16
I400
sg17
g13
sg18
g13
sg19
S'C:\\WINDOWS\\Fonts\\WINGDNG3.TTF'
p1682
sg21
g22
sbag7
(g8
g9
NtRp1683
(dp1684
g12
g13
sg14
S'Haettenschweiler'
p1685
sg16
I400
sg17
g13
sg18
g13
sg19
S'C:\\WINDOWS\\Fonts\\HATTEN.TTF'
p1686
sg21
g22
sbag7
(g8
g9
NtRp1687
(dp1688
g12
g13
sg14
S'Algerian'
p1689
sg16
I400
sg17
g13
sg18
g13
sg19
S'c:\\windows\\fonts\\alger.ttf'
p1690
sg21
g22
sbag7
(g8
g9
NtRp1691
(dp1692
g12
g13
sg14
S'Matura MT Script Capitals'
p1693
sg16
I400
sg17
g13
sg18
g13
sg19
S'c:\\windows\\fonts\\maturasc.ttf'
p1694
sg21
g22
sbag7
(g8
g9
NtRp1695
(dp1696
g12
g13
sg14
S'Stencil'
p1697
sg16
I400
sg17
g13
sg18
g13
sg19
S'C:\\WINDOWS\\Fonts\\STENCIL.TTF'
p1698
sg21
g22
sbag7
(g8
g9
NtRp1699
(dp1700
g12
g13
sg14
S'Lucida Sans Typewriter'
p1701
sg16
I400
sg17
g13
sg18
g13
sg19
S'c:\\windows\\fonts\\ltype.ttf'
p1702
sg21
g22
sbag7
(g8
g9
NtRp1703
(dp1704
g12
g13
sg14
S'Bookman Old Style'
p1705
sg16
I400
sg17
g13
sg18
g13
sg19
S'C:\\WINDOWS\\Fonts\\BOOKOS.TTF'
p1706
sg21
g22
sbag7
(g8
g9
NtRp1707
(dp1708
g12
g13
sg14
S'Palace Script MT'
p1709
sg16
I400
sg17
g13
sg18
g13
sg19
S'c:\\windows\\fonts\\palscri.ttf'
p1710
sg21
g22
sbag7
(g8
g9
NtRp1711
(dp1712
g12
g13
sg14
S'Century Gothic'
p1713
sg16
I400
sg17
g13
sg18
g13
sg19
S'c:\\windows\\fonts\\gothic.ttf'
p1714
sg21
g22
sbag7
(g8
g9
NtRp1715
(dp1716
g12
g13
sg14
S'Copperplate Gothic Light'
p1717
sg16
I200
sg17
g13
sg18
g13
sg19
S'C:\\WINDOWS\\Fonts\\COPRGTL.TTF'
p1718
sg21
g22
sbag7
(g8
g9
NtRp1719
(dp1720
g12
g50
sg14
S'Segoe UI'
p1721
sg16
I400
sg17
g13
sg18
g13
sg19
S'c:\\windows\\fonts\\seguili.ttf'
p1722
sg21
g22
sbag7
(g8
g9
NtRp1723
(dp1724
g12
g13
sg14
S'Pristina'
p1725
sg16
I400
sg17
g13
sg18
g13
sg19
S'c:\\windows\\fonts\\pristina.ttf'
p1726
sg21
g22
sbag7
(g8
g9
NtRp1727
(dp1728
g12
g13
sg14
S'Old English Text MT'
p1729
sg16
I400
sg17
g13
sg18
g13
sg19
S'C:\\WINDOWS\\Fonts\\OLDENGL.TTF'
p1730
sg21
g22
sbag7
(g8
g9
NtRp1731
(dp1732
g12
g13
sg14
S'Perpetua'
p1733
sg16
I400
sg17
g13
sg18
g13
sg19
S'c:\\windows\\fonts\\per_____.ttf'
p1734
sg21
g22
sbag7
(g8
g9
NtRp1735
(dp1736
g12
g13
sg14
S'Candara'
p1737
sg16
I700
sg17
g13
sg18
g13
sg19
S'C:\\WINDOWS\\Fonts\\Candarab.ttf'
p1738
sg21
g22
sbag7
(g8
g9
NtRp1739
(dp1740
g12
g13
sg14
S'Garamond'
p1741
sg16
I400
sg17
g13
sg18
g13
sg19
S'c:\\windows\\fonts\\gara.ttf'
p1742
sg21
g22
sbag7
(g8
g9
NtRp1743
(dp1744
g12
g50
sg14
S'Lucida Fax'
p1745
sg16
I400
sg17
g13
sg18
g13
sg19
S'c:\\windows\\fonts\\lfaxi.ttf'
p1746
sg21
g22
sbag7
(g8
g9
NtRp1747
(dp1748
g12
g13
sg14
S'Franklin Gothic Heavy'
p1749
sg16
I800
sg17
g13
sg18
g13
sg19
S'c:\\windows\\fonts\\frahv.ttf'
p1750
sg21
g22
sbag7
(g8
g9
NtRp1751
(dp1752
g12
g50
sg14
S'Candara'
p1753
sg16
I200
sg17
g13
sg18
g13
sg19
S'c:\\windows\\fonts\\candarali.ttf'
p1754
sg21
g22
sbag7
(g8
g9
NtRp1755
(dp1756
g12
g13
sg14
S'Leelawadee'
p1757
sg16
I700
sg17
g13
sg18
g13
sg19
S'c:\\windows\\fonts\\leelawdb.ttf'
p1758
sg21
g22
sbag7
(g8
g9
NtRp1759
(dp1760
g12
g50
sg14
S'Consolas'
p1761
sg16
I400
sg17
g13
sg18
g13
sg19
S'c:\\windows\\fonts\\consolai.ttf'
p1762
sg21
g22
sbag7
(g8
g9
NtRp1763
(dp1764
g12
g13
sg14
S'MS Reference Specialty'
p1765
sg16
I400
sg17
g13
sg18
g13
sg19
S'c:\\windows\\fonts\\refspcl.ttf'
p1766
sg21
g22
sbag7
(g8
g9
NtRp1767
(dp1768
g12
g50
sg14
S'Lucida Fax'
p1769
sg16
I700
sg17
g13
sg18
g13
sg19
S'C:\\WINDOWS\\Fonts\\LFAXDI.TTF'
p1770
sg21
g22
sbag7
(g8
g9
NtRp1771
(dp1772
g12
g50
sg14
S'Goudy Old Style'
p1773
sg16
I400
sg17
g13
sg18
g13
sg19
S'c:\\windows\\fonts\\goudosi.ttf'
p1774
sg21
g22
sbag7
(g8
g9
NtRp1775
(dp1776
g12
g13
sg14
S'Onyx'
p1777
sg16
I400
sg17
g13
sg18
g13
sg19
S'C:\\WINDOWS\\Fonts\\ONYX.TTF'
p1778
sg21
g22
sbag7
(g8
g9
NtRp1779
(dp1780
g12
g50
sg14
S'HP Simplified'
p1781
sg16
I700
sg17
g13
sg18
g13
sg19
S'c:\\windows\\fonts\\hpsimplified_bdit.ttf'
p1782
sg21
g22
sbag7
(g8
g9
NtRp1783
(dp1784
g12
g50
sg14
S'Book Antiqua'
p1785
sg16
I400
sg17
g13
sg18
g13
sg19
S'c:\\windows\\fonts\\antquai.ttf'
p1786
sg21
g22
sbag7
(g8
g9
NtRp1787
(dp1788
g12
g13
sg14
S'Georgia'
p1789
sg16
I400
sg17
g13
sg18
g13
sg19
S'c:\\windows\\fonts\\georgia.ttf'
p1790
sg21
g22
sbag7
(g8
g9
NtRp1791
(dp1792
g12
g13
sg14
S'Lucida Bright'
p1793
sg16
I400
sg17
g13
sg18
g13
sg19
S'c:\\windows\\fonts\\lbrite.ttf'
p1794
sg21
g22
sbag7
(g8
g9
NtRp1795
(dp1796
g12
g50
sg14
S'Segoe UI'
p1797
sg16
I400
sg17
g13
sg18
g13
sg19
S'c:\\windows\\fonts\\segoeuii.ttf'
p1798
sg21
g22
sbag7
(g8
g9
NtRp1799
(dp1800
g12
g13
sg14
S'French Script MT'
p1801
sg16
I400
sg17
g13
sg18
g13
sg19
S'c:\\windows\\fonts\\frscript.ttf'
p1802
sg21
g22
sbag7
(g8
g9
NtRp1803
(dp1804
g12
g13
sg14
S'Niagara Engraved'
p1805
sg16
I400
sg17
g13
sg18
g13
sg19
S'C:\\WINDOWS\\Fonts\\NIAGENG.TTF'
p1806
sg21
g22
sbag7
(g8
g9
NtRp1807
(dp1808
g12
g13
sg14
S'Lucida Bright'
p1809
sg16
I400
sg17
g13
sg18
g13
sg19
S'C:\\WINDOWS\\Fonts\\LBRITE.TTF'
p1810
sg21
g22
sbag7
(g8
g9
NtRp1811
(dp1812
g12
g13
sg14
S'Lucida Sans Typewriter'
p1813
sg16
I700
sg17
g13
sg18
g13
sg19
S'C:\\WINDOWS\\Fonts\\LTYPEB.TTF'
p1814
sg21
g22
sbag7
(g8
g9
NtRp1815
(dp1816
g12
g13
sg14
S'Bodoni MT'
p1817
sg16
I900
sg17
g13
sg18
g13
sg19
S'c:\\windows\\fonts\\bod_blar.ttf'
p1818
sg21
g22
sbag7
(g8
g9
NtRp1819
(dp1820
g12
g13
sg14
S'Copperplate Gothic Bold'
p1821
sg16
I700
sg17
g13
sg18
g13
sg19
S'c:\\windows\\fonts\\coprgtb.ttf'
p1822
sg21
g22
sbag7
(g8
g9
NtRp1823
(dp1824
g12
g13
sg14
S'Segoe Script'
p1825
sg16
I400
sg17
g13
sg18
g13
sg19
S'C:\\WINDOWS\\Fonts\\segoesc.ttf'
p1826
sg21
g22
sbag7
(g8
g9
NtRp1827
(dp1828
g12
g13
sg14
S'Gill Sans MT Condensed'
p1829
sg16
I400
sg17
g232
sg18
g13
sg19
S'c:\\windows\\fonts\\gilc____.ttf'
p1830
sg21
g22
sbag7
(g8
g9
NtRp1831
(dp1832
g12
g13
sg14
S'Leelawadee UI'
p1833
sg16
I400
sg17
g13
sg18
g13
sg19
S'C:\\WINDOWS\\Fonts\\LeelawUI.ttf'
p1834
sg21
g22
sbag7
(g8
g9
NtRp1835
(dp1836
g12
g13
sg14
S'Mistral'
p1837
sg16
I400
sg17
g13
sg18
g13
sg19
S'c:\\windows\\fonts\\mistral.ttf'
p1838
sg21
g22
sbag7
(g8
g9
NtRp1839
(dp1840
g12
g50
sg14
S'Comic Sans MS'
p1841
sg16
I700
sg17
g13
sg18
g13
sg19
S'C:\\WINDOWS\\Fonts\\comicz.ttf'
p1842
sg21
g22
sbag7
(g8
g9
NtRp1843
(dp1844
g12
g13
sg14
S'Algerian'
p1845
sg16
I400
sg17
g13
sg18
g13
sg19
S'C:\\WINDOWS\\Fonts\\ALGER.TTF'
p1846
sg21
g22
sbag7
(g8
g9
NtRp1847
(dp1848
g12
g13
sg14
S'Rockwell Condensed'
p1849
sg16
I400
sg17
g232
sg18
g13
sg19
S'c:\\windows\\fonts\\rocc____.ttf'
p1850
sg21
g22
sbag7
(g8
g9
NtRp1851
(dp1852
g12
g13
sg14
S'Times New Roman'
p1853
sg16
I700
sg17
g13
sg18
g13
sg19
S'C:\\WINDOWS\\Fonts\\timesbd.ttf'
p1854
sg21
g22
sbag7
(g8
g9
NtRp1855
(dp1856
g12
g50
sg14
S'Century Gothic'
p1857
sg16
I400
sg17
g13
sg18
g13
sg19
S'C:\\WINDOWS\\Fonts\\GOTHICI.TTF'
p1858
sg21
g22
sbag7
(g8
g9
NtRp1859
(dp1860
g12
g13
sg14
S'Tw Cen MT Condensed'
p1861
sg16
I700
sg17
g232
sg18
g13
sg19
S'C:\\WINDOWS\\Fonts\\TCCB____.TTF'
p1862
sg21
g22
sbag7
(g8
g9
NtRp1863
(dp1864
g12
g50
sg14
S'Harlow Solid Italic'
p1865
sg16
I400
sg17
g13
sg18
g13
sg19
S'C:\\WINDOWS\\Fonts\\HARLOWSI.TTF'
p1866
sg21
g22
sbag7
(g8
g9
NtRp1867
(dp1868
g12
g13
sg14
S'Tw Cen MT Condensed'
p1869
sg16
I400
sg17
g232
sg18
g13
sg19
S'c:\\windows\\fonts\\tccm____.ttf'
p1870
sg21
g22
sbag7
(g8
g9
NtRp1871
(dp1872
g12
g50
sg14
S'Candara'
p1873
sg16
I400
sg17
g13
sg18
g13
sg19
S'c:\\windows\\fonts\\candarai.ttf'
p1874
sg21
g22
sbag7
(g8
g9
NtRp1875
(dp1876
g12
g13
sg14
S'Comic Sans MS'
p1877
sg16
I400
sg17
g13
sg18
g13
sg19
S'c:\\windows\\fonts\\comic.ttf'
p1878
sg21
g22
sbag7
(g8
g9
NtRp1879
(dp1880
g12
g13
sg14
S'Myanmar Text'
p1881
sg16
I700
sg17
g13
sg18
g13
sg19
S'c:\\windows\\fonts\\mmrtextb.ttf'
p1882
sg21
g22
sbag7
(g8
g9
NtRp1883
(dp1884
g12
g13
sg14
S'Century Gothic'
p1885
sg16
I700
sg17
g13
sg18
g13
sg19
S'c:\\windows\\fonts\\gothicb.ttf'
p1886
sg21
g22
sbag7
(g8
g9
NtRp1887
(dp1888
g12
g13
sg14
S'Gill Sans Ultra Bold Condensed'
p1889
sg16
I700
sg17
g232
sg18
g13
sg19
S'C:\\WINDOWS\\Fonts\\GILLUBCD.TTF'
p1890
sg21
g22
sbag7
(g8
g9
NtRp1891
(dp1892
g12
g13
sg14
S'Berlin Sans FB'
p1893
sg16
I700
sg17
g13
sg18
g13
sg19
S'c:\\windows\\fonts\\brlnsb.ttf'
p1894
sg21
g22
sbag7
(g8
g9
NtRp1895
(dp1896
g12
g50
sg14
S'HP Simplified'
p1897
sg16
I700
sg17
g13
sg18
g13
sg19
S'C:\\WINDOWS\\Fonts\\HPSimplified_BdIt.ttf'
p1898
sg21
g22
sbag7
(g8
g9
NtRp1899
(dp1900
g12
g50
sg14
S'Vivaldi'
p1901
sg16
I400
sg17
g13
sg18
g13
sg19
S'c:\\windows\\fonts\\vivaldii.ttf'
p1902
sg21
g22
sbag7
(g8
g9
NtRp1903
(dp1904
g12
g13
sg14
S'Goudy Stout'
p1905
sg16
I400
sg17
g13
sg18
g13
sg19
S'C:\\WINDOWS\\Fonts\\GOUDYSTO.TTF'
p1906
sg21
g22
sbag7
(g8
g9
NtRp1907
(dp1908
g12
g13
sg14
S'Bookman Old Style'
p1909
sg16
I400
sg17
g13
sg18
g13
sg19
S'c:\\windows\\fonts\\bookos.ttf'
p1910
sg21
g22
sbag7
(g8
g9
NtRp1911
(dp1912
g12
g13
sg14
S'Maiandra GD'
p1913
sg16
I400
sg17
g13
sg18
g13
sg19
S'C:\\WINDOWS\\Fonts\\MAIAN.TTF'
p1914
sg21
g22
sbag7
(g8
g9
NtRp1915
(dp1916
g12
g13
sg14
S'Berlin Sans FB Demi'
p1917
sg16
I700
sg17
g13
sg18
g13
sg19
S'c:\\windows\\fonts\\brlnsdb.ttf'
p1918
sg21
g22
sbag7
(g8
g9
NtRp1919
(dp1920
g12
g13
sg14
S'Perpetua'
p1921
sg16
I700
sg17
g13
sg18
g13
sg19
S'c:\\windows\\fonts\\perb____.ttf'
p1922
sg21
g22
sbag7
(g8
g9
NtRp1923
(dp1924
g12
g13
sg14
S'Microsoft PhagsPa'
p1925
sg16
I700
sg17
g13
sg18
g13
sg19
S'C:\\WINDOWS\\Fonts\\phagspab.ttf'
p1926
sg21
g22
sbag7
(g8
g9
NtRp1927
(dp1928
g12
g50
sg14
S'Rage Italic'
p1929
sg16
I400
sg17
g13
sg18
g13
sg19
S'c:\\windows\\fonts\\rage.ttf'
p1930
sg21
g22
sbag7
(g8
g9
NtRp1931
(dp1932
g12
g50
sg14
S'Arial'
p1933
sg16
I700
sg17
g232
sg18
g13
sg19
S'c:\\windows\\fonts\\arialnbi.ttf'
p1934
sg21
g22
sbag7
(g8
g9
NtRp1935
(dp1936
g12
g13
sg14
S'Bodoni MT'
p1937
sg16
I700
sg17
g232
sg18
g13
sg19
S'c:\\windows\\fonts\\bod_cb.ttf'
p1938
sg21
g22
sbag7
(g8
g9
NtRp1939
(dp1940
g12
g13
sg14
S'Parchment'
p1941
sg16
I400
sg17
g13
sg18
g13
sg19
S'c:\\windows\\fonts\\parchm.ttf'
p1942
sg21
g22
sbag7
(g8
g9
NtRp1943
(dp1944
g12
g50
sg14
S'Harlow Solid Italic'
p1945
sg16
I400
sg17
g13
sg18
g13
sg19
S'c:\\windows\\fonts\\harlowsi.ttf'
p1946
sg21
g22
sbag7
(g8
g9
NtRp1947
(dp1948
g12
g13
sg14
S'Lucida Console'
p1949
sg16
I400
sg17
g13
sg18
g13
sg19
S'C:\\WINDOWS\\Fonts\\lucon.ttf'
p1950
sg21
g22
sbag7
(g8
g9
NtRp1951
(dp1952
g12
g13
sg14
S'Century Schoolbook'
p1953
sg16
I400
sg17
g13
sg18
g13
sg19
S'C:\\WINDOWS\\Fonts\\CENSCBK.TTF'
p1954
sg21
g22
sbag7
(g8
g9
NtRp1955
(dp1956
g12
g50
sg14
S'Elephant'
p1957
sg16
I400
sg17
g13
sg18
g13
sg19
S'C:\\WINDOWS\\Fonts\\ELEPHNTI.TTF'
p1958
sg21
g22
sbag7
(g8
g9
NtRp1959
(dp1960
g12
g13
sg14
S'Showcard Gothic'
p1961
sg16
I400
sg17
g13
sg18
g13
sg19
S'c:\\windows\\fonts\\showg.ttf'
p1962
sg21
g22
sbag7
(g8
g9
NtRp1963
(dp1964
g12
g50
sg14
S'Arial'
p1965
sg16
I400
sg17
g232
sg18
g13
sg19
S'c:\\windows\\fonts\\arialni.ttf'
p1966
sg21
g22
sbag7
(g8
g9
NtRp1967
(dp1968
g12
g13
sg14
S'Lucida Sans'
p1969
sg16
I400
sg17
g13
sg18
g13
sg19
S'C:\\WINDOWS\\Fonts\\LSANS.TTF'
p1970
sg21
g22
sbag7
(g8
g9
NtRp1971
(dp1972
g12
g13
sg14
S'Elephant'
p1973
sg16
I400
sg17
g13
sg18
g13
sg19
S'C:\\WINDOWS\\Fonts\\ELEPHNT.TTF'
p1974
sg21
g22
sbag7
(g8
g9
NtRp1975
(dp1976
g12
g50
sg14
S'Century Gothic'
p1977
sg16
I400
sg17
g13
sg18
g13
sg19
S'c:\\windows\\fonts\\gothici.ttf'
p1978
sg21
g22
sbag7
(g8
g9
NtRp1979
(dp1980
g12
g13
sg14
S'Dubai'
p1981
sg16
I200
sg17
g13
sg18
g13
sg19
S'C:\\WINDOWS\\Fonts\\DUBAI-LIGHT.TTF'
p1982
sg21
g22
sbag7
(g8
g9
NtRp1983
(dp1984
g12
g13
sg14
S'Ebrima'
p1985
sg16
I400
sg17
g13
sg18
g13
sg19
S'C:\\WINDOWS\\Fonts\\ebrima.ttf'
p1986
sg21
g22
sbag7
(g8
g9
NtRp1987
(dp1988
g12
g13
sg14
S'OCR A Extended'
p1989
sg16
I400
sg17
g13
sg18
g13
sg19
S'C:\\WINDOWS\\Fonts\\OCRAEXT.TTF'
p1990
sg21
g22
sbag7
(g8
g9
NtRp1991
(dp1992
g12
g13
sg14
S'Tempus Sans ITC'
p1993
sg16
I400
sg17
g13
sg18
g13
sg19
S'C:\\WINDOWS\\Fonts\\TEMPSITC.TTF'
p1994
sg21
g22
sbag7
(g8
g9
NtRp1995
(dp1996
g12
g13
sg14
S'Californian FB'
p1997
sg16
I700
sg17
g13
sg18
g13
sg19
S'C:\\WINDOWS\\Fonts\\CALIFB.TTF'
p1998
sg21
g22
sbag7
(g8
g9
NtRp1999
(dp2000
g12
g13
sg14
S'Eras Light ITC'
p2001
sg16
I200
sg17
g13
sg18
g13
sg19
S'C:\\WINDOWS\\Fonts\\ERASLGHT.TTF'
p2002
sg21
g22
sbag7
(g8
g9
NtRp2003
(dp2004
g12
g13
sg14
S'Forte'
p2005
sg16
I400
sg17
g13
sg18
g13
sg19
S'c:\\windows\\fonts\\forte.ttf'
p2006
sg21
g22
sbag7
(g8
g9
NtRp2007
(dp2008
g12
g13
sg14
S'Goudy Old Style'
p2009
sg16
I400
sg17
g13
sg18
g13
sg19
S'c:\\windows\\fonts\\goudos.ttf'
p2010
sg21
g22
sbag7
(g8
g9
NtRp2011
(dp2012
g12
g13
sg14
S'Leelawadee UI'
p2013
sg16
I400
sg17
g13
sg18
g13
sg19
S'c:\\windows\\fonts\\leelawui.ttf'
p2014
sg21
g22
sbag7
(g8
g9
NtRp2015
(dp2016
g12
g13
sg14
S'Microsoft Uighur'
p2017
sg16
I400
sg17
g13
sg18
g13
sg19
S'C:\\WINDOWS\\Fonts\\MSUIGHUR.TTF'
p2018
sg21
g22
sbag7
(g8
g9
NtRp2019
(dp2020
g12
g13
sg14
S'Stencil'
p2021
sg16
I400
sg17
g13
sg18
g13
sg19
S'c:\\windows\\fonts\\stencil.ttf'
p2022
sg21
g22
sbag7
(g8
g9
NtRp2023
(dp2024
g12
g13
sg14
S'Snap ITC'
p2025
sg16
I400
sg17
g13
sg18
g13
sg19
S'c:\\windows\\fonts\\snap____.ttf'
p2026
sg21
g22
sbag7
(g8
g9
NtRp2027
(dp2028
g12
g50
sg14
S'Candara'
p2029
sg16
I700
sg17
g13
sg18
g13
sg19
S'c:\\windows\\fonts\\candaraz.ttf'
p2030
sg21
g22
sbag7
(g8
g9
NtRp2031
(dp2032
g12
g13
sg14
S'Agency FB'
p2033
sg16
I400
sg17
g13
sg18
g13
sg19
S'c:\\windows\\fonts\\agencyr.ttf'
p2034
sg21
g22
sbag7
(g8
g9
NtRp2035
(dp2036
g12
g13
sg14
S'Edwardian Script ITC'
p2037
sg16
I400
sg17
g13
sg18
g13
sg19
S'c:\\windows\\fonts\\itcedscr.ttf'
p2038
sg21
g22
sbag7
(g8
g9
NtRp2039
(dp2040
g12
g13
sg14
S'Bell MT'
p2041
sg16
I700
sg17
g13
sg18
g13
sg19
S'C:\\WINDOWS\\Fonts\\BELLB.TTF'
p2042
sg21
g22
sbag7
(g8
g9
NtRp2043
(dp2044
g12
g50
sg14
S'Calisto MT'
p2045
sg16
I700
sg17
g13
sg18
g13
sg19
S'c:\\windows\\fonts\\calistbi.ttf'
p2046
sg21
g22
sbag7
(g8
g9
NtRp2047
(dp2048
g12
g13
sg14
S'Garamond'
p2049
sg16
I700
sg17
g13
sg18
g13
sg19
S'C:\\WINDOWS\\Fonts\\GARABD.TTF'
p2050
sg21
g22
sbag7
(g8
g9
NtRp2051
(dp2052
g12
g13
sg14
S'Bernard MT Condensed'
p2053
sg16
I400
sg17
g232
sg18
g13
sg19
S'C:\\WINDOWS\\Fonts\\BERNHC.TTF'
p2054
sg21
g22
sbag7
(g8
g9
NtRp2055
(dp2056
g12
g50
sg14
S'Franklin Gothic Book'
p2057
sg16
I400
sg17
g13
sg18
g13
sg19
S'C:\\WINDOWS\\Fonts\\FRABKIT.TTF'
p2058
sg21
g22
sbag7
(g8
g9
NtRp2059
(dp2060
g12
g13
sg14
S'Eras Medium ITC'
p2061
sg16
I500
sg17
g13
sg18
g13
sg19
S'C:\\WINDOWS\\Fonts\\ERASMD.TTF'
p2062
sg21
g22
sbag7
(g8
g9
NtRp2063
(dp2064
g12
g13
sg14
S'Dubai'
p2065
sg16
I500
sg17
g13
sg18
g13
sg19
S'C:\\WINDOWS\\Fonts\\DUBAI-MEDIUM.TTF'
p2066
sg21
g22
sbag7
(g8
g9
NtRp2067
(dp2068
g12
g50
sg14
S'Bodoni MT'
p2069
sg16
I900
sg17
g13
sg18
g13
sg19
S'C:\\WINDOWS\\Fonts\\BOD_BLAI.TTF'
p2070
sg21
g22
sbag7
(g8
g9
NtRp2071
(dp2072
g12
g13
sg14
S'Niagara Engraved'
p2073
sg16
I400
sg17
g13
sg18
g13
sg19
S'c:\\windows\\fonts\\niageng.ttf'
p2074
sg21
g22
sbag7
(g8
g9
NtRp2075
(dp2076
g12
g13
sg14
S'Harrington'
p2077
sg16
I400
sg17
g13
sg18
g13
sg19
S'C:\\WINDOWS\\Fonts\\HARNGTON.TTF'
p2078
sg21
g22
sbag7
(g8
g9
NtRp2079
(dp2080
g12
g13
sg14
S'Lucida Sans'
p2081
sg16
I700
sg17
g13
sg18
g13
sg19
S'c:\\windows\\fonts\\lsansd.ttf'
p2082
sg21
g22
sbag7
(g8
g9
NtRp2083
(dp2084
g12
g13
sg14
S'Gadugi'
p2085
sg16
I700
sg17
g13
sg18
g13
sg19
S'c:\\windows\\fonts\\gadugib.ttf'
p2086
sg21
g22
sbag7
(g8
g9
NtRp2087
(dp2088
g12
g13
sg14
S'Nirmala UI'
p2089
sg16
I200
sg17
g13
sg18
g13
sg19
S'C:\\WINDOWS\\Fonts\\NirmalaS.ttf'
p2090
sg21
g22
sbag7
(g8
g9
NtRp2091
(dp2092
g12
g13
sg14
S'Niagara Solid'
p2093
sg16
I400
sg17
g13
sg18
g13
sg19
S'C:\\WINDOWS\\Fonts\\NIAGSOL.TTF'
p2094
sg21
g22
sbag7
(g8
g9
NtRp2095
(dp2096
g12
g13
sg14
S'Broadway'
p2097
sg16
I400
sg17
g13
sg18
g13
sg19
S'C:\\WINDOWS\\Fonts\\BROADW.TTF'
p2098
sg21
g22
sbag7
(g8
g9
NtRp2099
(dp2100
g12
g50
sg14
S'Lucida Bright'
p2101
sg16
I400
sg17
g13
sg18
g13
sg19
S'c:\\windows\\fonts\\lbritei.ttf'
p2102
sg21
g22
sbag7
(g8
g9
NtRp2103
(dp2104
g12
g50
sg14
S'High Tower Text'
p2105
sg16
I400
sg17
g13
sg18
g13
sg19
S'c:\\windows\\fonts\\htowerti.ttf'
p2106
sg21
g22
sbag7
(g8
g9
NtRp2107
(dp2108
g12
g13
sg14
S'Berlin Sans FB'
p2109
sg16
I700
sg17
g13
sg18
g13
sg19
S'C:\\WINDOWS\\Fonts\\BRLNSB.TTF'
p2110
sg21
g22
sbag7
(g8
g9
NtRp2111
(dp2112
g12
g13
sg14
S'Kristen ITC'
p2113
sg16
I400
sg17
g13
sg18
g13
sg19
S'c:\\windows\\fonts\\itckrist.ttf'
p2114
sg21
g22
sbag7
(g8
g9
NtRp2115
(dp2116
g12
g13
sg14
S'Lucida Bright'
p2117
sg16
I700
sg17
g13
sg18
g13
sg19
S'c:\\windows\\fonts\\lbrited.ttf'
p2118
sg21
g22
sbag7
(g8
g9
NtRp2119
(dp2120
g12
g50
sg14
S'Rockwell'
p2121
sg16
I700
sg17
g13
sg18
g13
sg19
S'C:\\WINDOWS\\Fonts\\ROCKBI.TTF'
p2122
sg21
g22
sbag7
(g8
g9
NtRp2123
(dp2124
g12
g50
sg14
S'Bookman Old Style'
p2125
sg16
I700
sg17
g13
sg18
g13
sg19
S'C:\\WINDOWS\\Fonts\\BOOKOSBI.TTF'
p2126
sg21
g22
sbag7
(g8
g9
NtRp2127
(dp2128
g12
g13
sg14
S'High Tower Text'
p2129
sg16
I400
sg17
g13
sg18
g13
sg19
S'C:\\WINDOWS\\Fonts\\HTOWERT.TTF'
p2130
sg21
g22
sbag7
(g8
g9
NtRp2131
(dp2132
g12
g13
sg14
S'Bradley Hand ITC'
p2133
sg16
I400
sg17
g13
sg18
g13
sg19
S'c:\\windows\\fonts\\bradhitc.ttf'
p2134
sg21
g22
sbag7
(g8
g9
NtRp2135
(dp2136
g12
g13
sg14
S'Arial'
p2137
sg16
I400
sg17
g232
sg18
g13
sg19
S'C:\\WINDOWS\\Fonts\\ARIALN.TTF'
p2138
sg21
g22
sbag7
(g8
g9
NtRp2139
(dp2140
g12
g13
sg14
S'Bodoni MT'
p2141
sg16
I700
sg17
g232
sg18
g13
sg19
S'C:\\WINDOWS\\Fonts\\BOD_CB.TTF'
p2142
sg21
g22
sbag7
(g8
g9
NtRp2143
(dp2144
g12
g13
sg14
S'Edwardian Script ITC'
p2145
sg16
I400
sg17
g13
sg18
g13
sg19
S'C:\\WINDOWS\\Fonts\\ITCEDSCR.TTF'
p2146
sg21
g22
sbag7
(g8
g9
NtRp2147
(dp2148
g12
g13
sg14
S'Vladimir Script'
p2149
sg16
I400
sg17
g13
sg18
g13
sg19
S'c:\\windows\\fonts\\vladimir.ttf'
p2150
sg21
g22
sbag7
(g8
g9
NtRp2151
(dp2152
g12
g13
sg14
S'Leelawadee UI'
p2153
sg16
I700
sg17
g13
sg18
g13
sg19
S'c:\\windows\\fonts\\leelauib.ttf'
p2154
sg21
g22
sbag7
(g8
g9
NtRp2155
(dp2156
g12
g13
sg14
S'Freestyle Script'
p2157
sg16
I400
sg17
g13
sg18
g13
sg19
S'C:\\WINDOWS\\Fonts\\FREESCPT.TTF'
p2158
sg21
g22
sbag7
(g8
g9
NtRp2159
(dp2160
g12
g13
sg14
S'Bookshelf Symbol 7'
p2161
sg16
I400
sg17
g13
sg18
g13
sg19
S'c:\\windows\\fonts\\bssym7.ttf'
p2162
sg21
g22
sbag7
(g8
g9
NtRp2163
(dp2164
g12
g13
sg14
S'HoloLens MDL2 Assets'
p2165
sg16
I400
sg17
g13
sg18
g13
sg19
S'C:\\WINDOWS\\Fonts\\holomdl2.ttf'
p2166
sg21
g22
sbag7
(g8
g9
NtRp2167
(dp2168
g12
g13
sg14
S'Segoe MDL2 Assets'
p2169
sg16
I400
sg17
g13
sg18
g13
sg19
S'C:\\WINDOWS\\Fonts\\segmdl2.ttf'
p2170
sg21
g22
sbag7
(g8
g9
NtRp2171
(dp2172
g12
g13
sg14
S'Leelawadee UI'
p2173
sg16
I400
sg17
g13
sg18
g13
sg19
S'c:\\windows\\fonts\\leeluisl.ttf'
p2174
sg21
g22
sbag7
(g8
g9
NtRp2175
(dp2176
g12
g13
sg14
S'HP Simplified'
p2177
sg16
I700
sg17
g13
sg18
g13
sg19
S'c:\\windows\\fonts\\hpsimplified_bd.ttf'
p2178
sg21
g22
sbag7
(g8
g9
NtRp2179
(dp2180
g12
g13
sg14
S'Goudy Old Style'
p2181
sg16
I400
sg17
g13
sg18
g13
sg19
S'C:\\WINDOWS\\Fonts\\GOUDOS.TTF'
p2182
sg21
g22
sbag7
(g8
g9
NtRp2183
(dp2184
g12
g50
sg14
S'Lucida Handwriting'
p2185
sg16
I400
sg17
g13
sg18
g13
sg19
S'c:\\windows\\fonts\\lhandw.ttf'
p2186
sg21
g22
sbag7
(g8
g9
NtRp2187
(dp2188
g12
g50
sg14
S'HP Simplified'
p2189
sg16
I400
sg17
g13
sg18
g13
sg19
S'c:\\windows\\fonts\\hpsimplified_it.ttf'
p2190
sg21
g22
sbag7
(g8
g9
NtRp2191
(dp2192
g12
g13
sg14
S'Rockwell Extra Bold'
p2193
sg16
I700
sg17
g13
sg18
g13
sg19
S'c:\\windows\\fonts\\rockeb.ttf'
p2194
sg21
g22
sbag7
(g8
g9
NtRp2195
(dp2196
g12
g50
sg14
S'Bookman Old Style'
p2197
sg16
I400
sg17
g13
sg18
g13
sg19
S'C:\\WINDOWS\\Fonts\\BOOKOSI.TTF'
p2198
sg21
g22
sbag7
(g8
g9
NtRp2199
(dp2200
g12
g13
sg14
S'Rockwell'
p2201
sg16
I700
sg17
g13
sg18
g13
sg19
S'c:\\windows\\fonts\\rockb.ttf'
p2202
sg21
g22
sbag7
(g8
g9
NtRp2203
(dp2204
g12
g50
sg14
S'Garamond'
p2205
sg16
I400
sg17
g13
sg18
g13
sg19
S'C:\\WINDOWS\\Fonts\\GARAIT.TTF'
p2206
sg21
g22
sbag7
(g8
g9
NtRp2207
(dp2208
g12
g13
sg14
S'Playbill'
p2209
sg16
I400
sg17
g13
sg18
g13
sg19
S'c:\\windows\\fonts\\playbill.ttf'
p2210
sg21
g22
sbag7
(g8
g9
NtRp2211
(dp2212
g12
g13
sg14
S'Lucida Sans Typewriter'
p2213
sg16
I700
sg17
g13
sg18
g13
sg19
S'c:\\windows\\fonts\\ltypeb.ttf'
p2214
sg21
g22
sbag7
(g8
g9
NtRp2215
(dp2216
g12
g13
sg14
S'Garamond'
p2217
sg16
I400
sg17
g13
sg18
g13
sg19
S'C:\\WINDOWS\\Fonts\\GARA.TTF'
p2218
sg21
g22
sbag7
(g8
g9
NtRp2219
(dp2220
g12
g50
sg14
S'Californian FB'
p2221
sg16
I400
sg17
g13
sg18
g13
sg19
S'C:\\WINDOWS\\Fonts\\CALIFI.TTF'
p2222
sg21
g22
sbag7
(g8
g9
NtRp2223
(dp2224
g12
g13
sg14
S'Bodoni MT'
p2225
sg16
I400
sg17
g13
sg18
g13
sg19
S'c:\\windows\\fonts\\bod_r.ttf'
p2226
sg21
g22
sbag7
(g8
g9
NtRp2227
(dp2228
g12
g13
sg14
S'MS Reference Sans Serif'
p2229
sg16
I400
sg17
g13
sg18
g13
sg19
S'C:\\WINDOWS\\Fonts\\REFSAN.TTF'
p2230
sg21
g22
sbag7
(g8
g9
NtRp2231
(dp2232
g12
g13
sg14
S'Bodoni MT'
p2233
sg16
I400
sg17
g13
sg18
g13
sg19
S'c:\\windows\\fonts\\bod_pstc.ttf'
p2234
sg21
g22
sbag7
(g8
g9
NtRp2235
(dp2236
g12
g13
sg14
S'Lucida Sans'
p2237
sg16
I700
sg17
g13
sg18
g13
sg19
S'C:\\WINDOWS\\Fonts\\LSANSD.TTF'
p2238
sg21
g22
sbag7
(g8
g9
NtRp2239
(dp2240
g12
g13
sg14
S'Wide Latin'
p2241
sg16
I400
sg17
g1525
sg18
g13
sg19
S'C:\\WINDOWS\\Fonts\\LATINWD.TTF'
p2242
sg21
g22
sbag7
(g8
g9
NtRp2243
(dp2244
g12
g13
sg14
S'Copperplate Gothic Bold'
p2245
sg16
I700
sg17
g13
sg18
g13
sg19
S'C:\\WINDOWS\\Fonts\\COPRGTB.TTF'
p2246
sg21
g22
sbag7
(g8
g9
NtRp2247
(dp2248
g12
g13
sg14
S'Dubai'
p2249
sg16
I700
sg17
g13
sg18
g13
sg19
S'C:\\WINDOWS\\Fonts\\DUBAI-BOLD.TTF'
p2250
sg21
g22
sbag7
(g8
g9
NtRp2251
(dp2252
g12
g13
sg14
S'Gabriola'
p2253
sg16
I400
sg17
g13
sg18
g13
sg19
S'c:\\windows\\fonts\\gabriola.ttf'
p2254
sg21
g22
sbag7
(g8
g9
NtRp2255
(dp2256
g12
g13
sg14
S'Imprint MT Shadow'
p2257
sg16
I400
sg17
g13
sg18
g13
sg19
S'C:\\WINDOWS\\Fonts\\IMPRISHA.TTF'
p2258
sg21
g22
sbag7
(g8
g9
NtRp2259
(dp2260
g12
g13
sg14
S'Footlight MT Light'
p2261
sg16
I200
sg17
g13
sg18
g13
sg19
S'C:\\WINDOWS\\Fonts\\FTLTLT.TTF'
p2262
sg21
g22
sbag7
(g8
g9
NtRp2263
(dp2264
g12
g50
sg14
S'Perpetua'
p2265
sg16
I700
sg17
g13
sg18
g13
sg19
S'c:\\windows\\fonts\\perbi___.ttf'
p2266
sg21
g22
sbag7
(g8
g9
NtRp2267
(dp2268
g12
g13
sg14
S'Ravie'
p2269
sg16
I400
sg17
g13
sg18
g13
sg19
S'c:\\windows\\fonts\\ravie.ttf'
p2270
sg21
g22
sbag7
(g8
g9
NtRp2271
(dp2272
g12
g13
sg14
S'Tw Cen MT Condensed Extra Bold'
p2273
sg16
I700
sg17
g232
sg18
g13
sg19
S'c:\\windows\\fonts\\tcceb.ttf'
p2274
sg21
g22
sbag7
(g8
g9
NtRp2275
(dp2276
g12
g13
sg14
S'Eras Demi ITC'
p2277
sg16
I600
sg17
g13
sg18
g13
sg19
S'c:\\windows\\fonts\\erasdemi.ttf'
p2278
sg21
g22
sbag7
(g8
g9
NtRp2279
(dp2280
g12
g13
sg14
S'Book Antiqua'
p2281
sg16
I400
sg17
g13
sg18
g13
sg19
S'C:\\WINDOWS\\Fonts\\BKANT.TTF'
p2282
sg21
g22
sbag7
(g8
g9
NtRp2283
(dp2284
g12
g13
sg14
S'Mistral'
p2285
sg16
I400
sg17
g13
sg18
g13
sg19
S'C:\\WINDOWS\\Fonts\\MISTRAL.TTF'
p2286
sg21
g22
sbag7
(g8
g9
NtRp2287
(dp2288
g12
g13
sg14
S'HP Simplified'
p2289
sg16
I200
sg17
g13
sg18
g13
sg19
S'C:\\WINDOWS\\Fonts\\HPSimplified_Lt.ttf'
p2290
sg21
g22
sbag7
(g8
g9
NtRp2291
(dp2292
g12
g13
sg14
S'Script MT Bold'
p2293
sg16
I700
sg17
g13
sg18
g13
sg19
S'c:\\windows\\fonts\\scriptbl.ttf'
p2294
sg21
g22
sbag7
(g8
g9
NtRp2295
(dp2296
g12
g13
sg14
S'Matura MT Script Capitals'
p2297
sg16
I400
sg17
g13
sg18
g13
sg19
S'C:\\WINDOWS\\Fonts\\MATURASC.TTF'
p2298
sg21
g22
sbag7
(g8
g9
NtRp2299
(dp2300
g12
g13
sg14
S'Old English Text MT'
p2301
sg16
I400
sg17
g13
sg18
g13
sg19
S'c:\\windows\\fonts\\oldengl.ttf'
p2302
sg21
g22
sbag7
(g8
g9
NtRp2303
(dp2304
g12
g13
sg14
S'Bell MT'
p2305
sg16
I700
sg17
g13
sg18
g13
sg19
S'c:\\windows\\fonts\\bellb.ttf'
p2306
sg21
g22
sbag7
(g8
g9
NtRp2307
(dp2308
g12
g13
sg14
S'Arial Rounded MT Bold'
p2309
sg16
I700
sg17
g13
sg18
g13
sg19
S'c:\\windows\\fonts\\arlrdbd.ttf'
p2310
sg21
g22
sbag7
(g8
g9
NtRp2311
(dp2312
g12
g13
sg14
S'Bell MT'
p2313
sg16
I400
sg17
g13
sg18
g13
sg19
S'C:\\WINDOWS\\Fonts\\BELL.TTF'
p2314
sg21
g22
sbag7
(g8
g9
NtRp2315
(dp2316
g12
g13
sg14
S'Arial Unicode MS'
p2317
sg16
I400
sg17
g13
sg18
g13
sg19
S'C:\\WINDOWS\\Fonts\\ARIALUNI.TTF'
p2318
sg21
g22
sbag7
(g8
g9
NtRp2319
(dp2320
g12
g13
sg14
S'Poor Richard'
p2321
sg16
I400
sg17
g13
sg18
g13
sg19
S'c:\\windows\\fonts\\poorich.ttf'
p2322
sg21
g22
sbag7
(g8
g9
NtRp2323
(dp2324
g12
g50
sg14
S'Bodoni MT'
p2325
sg16
I700
sg17
g232
sg18
g13
sg19
S'c:\\windows\\fonts\\bod_cbi.ttf'
p2326
sg21
g22
sbag7
(g8
g9
NtRp2327
(dp2328
g12
g13
sg14
S'Broadway'
p2329
sg16
I400
sg17
g13
sg18
g13
sg19
S'c:\\windows\\fonts\\broadw.ttf'
p2330
sg21
g22
sbag7
(g8
g9
NtRp2331
(dp2332
g12
g13
sg14
S'Modern No. 20'
p2333
sg16
I400
sg17
g13
sg18
g13
sg19
S'C:\\WINDOWS\\Fonts\\MOD20.TTF'
p2334
sg21
g22
sbasS'defaultFamily'
p2335
(dp2336
S'afm'
p2337
S'Helvetica'
p2338
sS'ttf'
p2339
S'Bitstream Vera Sans'
p2340
ssS'ttffiles'
p2341
(lp2342
S'C:\\PROGRA~1\\QGISPI~1\\apps\\Python27\\lib\\site-packages\\matplotlib-1.3.1-py2.7-win-amd64.egg\\matplotlib\\mpl-data\\fonts\\ttf\\cmr10.ttf'
p2343
aS'C:\\PROGRA~1\\QGISPI~1\\apps\\Python27\\lib\\site-packages\\matplotlib-1.3.1-py2.7-win-amd64.egg\\matplotlib\\mpl-data\\fonts\\ttf\\STIXSizTwoSymReg.ttf'
p2344
aS'C:\\PROGRA~1\\QGISPI~1\\apps\\Python27\\lib\\site-packages\\matplotlib-1.3.1-py2.7-win-amd64.egg\\matplotlib\\mpl-data\\fonts\\ttf\\STIXSizOneSymReg.ttf'
p2345
aS'C:\\PROGRA~1\\QGISPI~1\\apps\\Python27\\lib\\site-packages\\matplotlib-1.3.1-py2.7-win-amd64.egg\\matplotlib\\mpl-data\\fonts\\ttf\\STIXGeneralBol.ttf'
p2346
aS'C:\\PROGRA~1\\QGISPI~1\\apps\\Python27\\lib\\site-packages\\matplotlib-1.3.1-py2.7-win-amd64.egg\\matplotlib\\mpl-data\\fonts\\ttf\\cmtt10.ttf'
p2347
aS'C:\\PROGRA~1\\QGISPI~1\\apps\\Python27\\lib\\site-packages\\matplotlib-1.3.1-py2.7-win-amd64.egg\\matplotlib\\mpl-data\\fonts\\ttf\\VeraMoIt.ttf'
p2348
aS'C:\\PROGRA~1\\QGISPI~1\\apps\\Python27\\lib\\site-packages\\matplotlib-1.3.1-py2.7-win-amd64.egg\\matplotlib\\mpl-data\\fonts\\ttf\\STIXSizThreeSymReg.ttf'
p2349
aS'C:\\PROGRA~1\\QGISPI~1\\apps\\Python27\\lib\\site-packages\\matplotlib-1.3.1-py2.7-win-amd64.egg\\matplotlib\\mpl-data\\fonts\\ttf\\STIXNonUniIta.ttf'
p2350
aS'C:\\PROGRA~1\\QGISPI~1\\apps\\Python27\\lib\\site-packages\\matplotlib-1.3.1-py2.7-win-amd64.egg\\matplotlib\\mpl-data\\fonts\\ttf\\STIXSizFourSymBol.ttf'
p2351
aS'C:\\PROGRA~1\\QGISPI~1\\apps\\Python27\\lib\\site-packages\\matplotlib-1.3.1-py2.7-win-amd64.egg\\matplotlib\\mpl-data\\fonts\\ttf\\VeraMoBd.ttf'
p2352
aS'C:\\PROGRA~1\\QGISPI~1\\apps\\Python27\\lib\\site-packages\\matplotlib-1.3.1-py2.7-win-amd64.egg\\matplotlib\\mpl-data\\fonts\\ttf\\VeraBd.ttf'
p2353
aS'C:\\PROGRA~1\\QGISPI~1\\apps\\Python27\\lib\\site-packages\\matplotlib-1.3.1-py2.7-win-amd64.egg\\matplotlib\\mpl-data\\fonts\\ttf\\VeraSe.ttf'
p2354
aS'C:\\PROGRA~1\\QGISPI~1\\apps\\Python27\\lib\\site-packages\\matplotlib-1.3.1-py2.7-win-amd64.egg\\matplotlib\\mpl-data\\fonts\\ttf\\VeraMono.ttf'
p2355
aS'C:\\PROGRA~1\\QGISPI~1\\apps\\Python27\\lib\\site-packages\\matplotlib-1.3.1-py2.7-win-amd64.egg\\matplotlib\\mpl-data\\fonts\\ttf\\STIXSizThreeSymBol.ttf'
p2356
aS'C:\\PROGRA~1\\QGISPI~1\\apps\\Python27\\lib\\site-packages\\matplotlib-1.3.1-py2.7-win-amd64.egg\\matplotlib\\mpl-data\\fonts\\ttf\\VeraIt.ttf'
p2357
aS'C:\\PROGRA~1\\QGISPI~1\\apps\\Python27\\lib\\site-packages\\matplotlib-1.3.1-py2.7-win-amd64.egg\\matplotlib\\mpl-data\\fonts\\ttf\\STIXSizOneSymBol.ttf'
p2358
aS'C:\\PROGRA~1\\QGISPI~1\\apps\\Python27\\lib\\site-packages\\matplotlib-1.3.1-py2.7-win-amd64.egg\\matplotlib\\mpl-data\\fonts\\ttf\\STIXNonUni.ttf'
p2359
aS'C:\\PROGRA~1\\QGISPI~1\\apps\\Python27\\lib\\site-packages\\matplotlib-1.3.1-py2.7-win-amd64.egg\\matplotlib\\mpl-data\\fonts\\ttf\\VeraSeBd.ttf'
p2360
aS'C:\\PROGRA~1\\QGISPI~1\\apps\\Python27\\lib\\site-packages\\matplotlib-1.3.1-py2.7-win-amd64.egg\\matplotlib\\mpl-data\\fonts\\ttf\\Vera.ttf'
p2361
aS'C:\\PROGRA~1\\QGISPI~1\\apps\\Python27\\lib\\site-packages\\matplotlib-1.3.1-py2.7-win-amd64.egg\\matplotlib\\mpl-data\\fonts\\ttf\\STIXSizTwoSymBol.ttf'
p2362
aS'C:\\PROGRA~1\\QGISPI~1\\apps\\Python27\\lib\\site-packages\\matplotlib-1.3.1-py2.7-win-amd64.egg\\matplotlib\\mpl-data\\fonts\\ttf\\cmex10.ttf'
p2363
aS'C:\\PROGRA~1\\QGISPI~1\\apps\\Python27\\lib\\site-packages\\matplotlib-1.3.1-py2.7-win-amd64.egg\\matplotlib\\mpl-data\\fonts\\ttf\\VeraBI.ttf'
p2364
aS'C:\\PROGRA~1\\QGISPI~1\\apps\\Python27\\lib\\site-packages\\matplotlib-1.3.1-py2.7-win-amd64.egg\\matplotlib\\mpl-data\\fonts\\ttf\\cmmi10.ttf'
p2365
aS'C:\\PROGRA~1\\QGISPI~1\\apps\\Python27\\lib\\site-packages\\matplotlib-1.3.1-py2.7-win-amd64.egg\\matplotlib\\mpl-data\\fonts\\ttf\\cmb10.ttf'
p2366
aS'C:\\PROGRA~1\\QGISPI~1\\apps\\Python27\\lib\\site-packages\\matplotlib-1.3.1-py2.7-win-amd64.egg\\matplotlib\\mpl-data\\fonts\\ttf\\cmss10.ttf'
p2367
aS'C:\\PROGRA~1\\QGISPI~1\\apps\\Python27\\lib\\site-packages\\matplotlib-1.3.1-py2.7-win-amd64.egg\\matplotlib\\mpl-data\\fonts\\ttf\\STIXNonUniBol.ttf'
p2368
aS'C:\\PROGRA~1\\QGISPI~1\\apps\\Python27\\lib\\site-packages\\matplotlib-1.3.1-py2.7-win-amd64.egg\\matplotlib\\mpl-data\\fonts\\ttf\\cmsy10.ttf'
p2369
aS'C:\\PROGRA~1\\QGISPI~1\\apps\\Python27\\lib\\site-packages\\matplotlib-1.3.1-py2.7-win-amd64.egg\\matplotlib\\mpl-data\\fonts\\ttf\\STIXGeneralItalic.ttf'
p2370
aS'C:\\PROGRA~1\\QGISPI~1\\apps\\Python27\\lib\\site-packages\\matplotlib-1.3.1-py2.7-win-amd64.egg\\matplotlib\\mpl-data\\fonts\\ttf\\STIXGeneral.ttf'
p2371
aS'C:\\PROGRA~1\\QGISPI~1\\apps\\Python27\\lib\\site-packages\\matplotlib-1.3.1-py2.7-win-amd64.egg\\matplotlib\\mpl-data\\fonts\\ttf\\STIXSizFiveSymReg.ttf'
p2372
aS'C:\\PROGRA~1\\QGISPI~1\\apps\\Python27\\lib\\site-packages\\matplotlib-1.3.1-py2.7-win-amd64.egg\\matplotlib\\mpl-data\\fonts\\ttf\\VeraMoBI.ttf'
p2373
aS'C:\\PROGRA~1\\QGISPI~1\\apps\\Python27\\lib\\site-packages\\matplotlib-1.3.1-py2.7-win-amd64.egg\\matplotlib\\mpl-data\\fonts\\ttf\\STIXSizFourSymReg.ttf'
p2374
aS'C:\\PROGRA~1\\QGISPI~1\\apps\\Python27\\lib\\site-packages\\matplotlib-1.3.1-py2.7-win-amd64.egg\\matplotlib\\mpl-data\\fonts\\ttf\\STIXGeneralBolIta.ttf'
p2375
aS'C:\\PROGRA~1\\QGISPI~1\\apps\\Python27\\lib\\site-packages\\matplotlib-1.3.1-py2.7-win-amd64.egg\\matplotlib\\mpl-data\\fonts\\ttf\\STIXNonUniBolIta.ttf'
p2376
aVC:\u005cWINDOWS\u005cFonts\u005cHTOWERTI.TTF
p2377
aVc:\u005cwindows\u005cfonts\u005cftltlt.ttf
p2378
aVC:\u005cWINDOWS\u005cFonts\u005ccomici.ttf
p2379
aVc:\u005cwindows\u005cfonts\u005ccambriab.ttf
p2380
aVC:\u005cWINDOWS\u005cFonts\u005cANTQUAI.TTF
p2381
aVc:\u005cwindows\u005cfonts\u005ctrebucbd.ttf
p2382
aVC:\u005cWINDOWS\u005cFonts\u005cPERTILI.TTF
p2383
aVc:\u005cwindows\u005cfonts\u005cbelli.ttf
p2384
aVc:\u005cwindows\u005cfonts\u005cbod_blai.ttf
p2385
aVC:\u005cWINDOWS\u005cFonts\u005cROCKEB.TTF
p2386
aVC:\u005cWINDOWS\u005cFonts\u005cGOTHIC.TTF
p2387
aVC:\u005cWINDOWS\u005cFonts\u005cmicross.ttf
p2388
aVC:\u005cWINDOWS\u005cFonts\u005cCandaraz.ttf
p2389
aVc:\u005cwindows\u005cfonts\u005ctaileb.ttf
p2390
aVc:\u005cwindows\u005cfonts\u005cfradm.ttf
p2391
aVc:\u005cwindows\u005cfonts\u005ctrebucbi.ttf
p2392
aVc:\u005cwindows\u005cfonts\u005cmtcorsva.ttf
p2393
aVc:\u005cwindows\u005cfonts\u005csegoeuiz.ttf
p2394
aVc:\u005cwindows\u005cfonts\u005cbod_cr.ttf
p2395
aVc:\u005cwindows\u005cfonts\u005cbod_bi.ttf
p2396
aVc:\u005cwindows\u005cfonts\u005cgili____.ttf
p2397
aVc:\u005cwindows\u005cfonts\u005cseguibli.ttf
p2398
aVc:\u005cwindows\u005cfonts\u005cimprisha.ttf
p2399
aVc:\u005cwindows\u005cfonts\u005cmtextra.ttf
p2400
aVc:\u005cwindows\u005cfonts\u005cariali.ttf
p2401
aVc:\u005cwindows\u005cfonts\u005cseguisbi.ttf
p2402
aVC:\u005cWINDOWS\u005cFonts\u005cFRADMIT.TTF
p2403
aVc:\u005cwindows\u005cfonts\u005cmagnetob.ttf
p2404
aVc:\u005cwindows\u005cfonts\u005ctccb____.ttf
p2405
aVc:\u005cwindows\u005cfonts\u005cseguisb.ttf
p2406
aVC:\u005cWINDOWS\u005cFonts\u005ctimesi.ttf
p2407
aVC:\u005cWINDOWS\u005cFonts\u005cPER_____.TTF
p2408
aVC:\u005cWINDOWS\u005cFonts\u005cgeorgiaz.ttf
p2409
aVC:\u005cWINDOWS\u005cFonts\u005cLHANDW.TTF
p2410
aVC:\u005cWINDOWS\u005cFonts\u005cconstanb.ttf
p2411
aVC:\u005cWINDOWS\u005cFonts\u005cGIL_____.TTF
p2412
aVC:\u005cWINDOWS\u005cFonts\u005cPLAYBILL.TTF
p2413
aVc:\u005cwindows\u005cfonts\u005ctahomabd.ttf
p2414
aVc:\u005cwindows\u005cfonts\u005ccalifi.ttf
p2415
aVc:\u005cwindows\u005cfonts\u005ckunstler.ttf
p2416
aVc:\u005cwindows\u005cfonts\u005chpsimplified_rg.ttf
p2417
aVc:\u005cwindows\u005cfonts\u005cconsola.ttf
p2418
aVC:\u005cWINDOWS\u005cFonts\u005cCURLZ___.TTF
p2419
aVc:\u005cwindows\u005cfonts\u005cgilbi___.ttf
p2420
aVC:\u005cWINDOWS\u005cFonts\u005cPERBI___.TTF
p2421
aVC:\u005cWINDOWS\u005cFonts\u005cPARCHM.TTF
p2422
aVc:\u005cwindows\u005cfonts\u005carialbd.ttf
p2423
aVC:\u005cWINDOWS\u005cFonts\u005cBRLNSR.TTF
p2424
aVC:\u005cWINDOWS\u005cFonts\u005cBOD_CR.TTF
p2425
aVC:\u005cWINDOWS\u005cFonts\u005cBOD_BLAR.TTF
p2426
aVc:\u005cwindows\u005cfonts\u005cverdanaz.ttf
p2427
aVc:\u005cwindows\u005cfonts\u005clfaxd.ttf
p2428
aVC:\u005cWINDOWS\u005cFonts\u005cgeorgiai.ttf
p2429
aVC:\u005cWINDOWS\u005cFonts\u005cBOD_I.TTF
p2430
aVc:\u005cwindows\u005cfonts\u005cmaian.ttf
p2431
aVc:\u005cwindows\u005cfonts\u005cfrabkit.ttf
p2432
aVC:\u005cWINDOWS\u005cFonts\u005cconstani.ttf
p2433
aVc:\u005cwindows\u005cfonts\u005csegoeui.ttf
p2434
aVC:\u005cWINDOWS\u005cFonts\u005cHPSimplified_Bd.ttf
p2435
aVC:\u005cWINDOWS\u005cFonts\u005cANTQUAB.TTF
p2436
aVc:\u005cwindows\u005cfonts\u005cantquabi.ttf
p2437
aVc:\u005cwindows\u005cfonts\u005ccorbelb.ttf
p2438
aVc:\u005cwindows\u005cfonts\u005ccalifb.ttf
p2439
aVC:\u005cWINDOWS\u005cFonts\u005cCASTELAR.TTF
p2440
aVC:\u005cWINDOWS\u005cFonts\u005cCHILLER.TTF
p2441
aVc:\u005cwindows\u005cfonts\u005cinfroman.ttf
p2442
aVC:\u005cWINDOWS\u005cFonts\u005cERASBD.TTF
p2443
aVC:\u005cWINDOWS\u005cFonts\u005cROCCB___.TTF
p2444
aVC:\u005cWINDOWS\u005cFonts\u005cInkfree.ttf
p2445
aVc:\u005cwindows\u005cfonts\u005cagencyb.ttf
p2446
aVc:\u005cwindows\u005cfonts\u005cnirmala.ttf
p2447
aVc:\u005cwindows\u005cfonts\u005ccoopbl.ttf
p2448
aVC:\u005cWINDOWS\u005cFonts\u005cariblk.ttf
p2449
aVc:\u005cwindows\u005cfonts\u005carialn.ttf
p2450
aVc:\u005cwindows\u005cfonts\u005cltypebo.ttf
p2451
aVC:\u005cWINDOWS\u005cFonts\u005cPERTIBD.TTF
p2452
aVC:\u005cWINDOWS\u005cFonts\u005cimpact.ttf
p2453
aVc:\u005cwindows\u005cfonts\u005cbahnschrift.ttf
p2454
aVC:\u005cWINDOWS\u005cFonts\u005cTCCEB.TTF
p2455
aVC:\u005cWINDOWS\u005cFonts\u005cARIALNBI.TTF
p2456
aVc:\u005cwindows\u005cfonts\u005cmod20.ttf
p2457
aVc:\u005cwindows\u005cfonts\u005cschlbkbi.ttf
p2458
aVC:\u005cWINDOWS\u005cFonts\u005cITCKRIST.TTF
p2459
aVC:\u005cWINDOWS\u005cFonts\u005cTCMI____.TTF
p2460
aVC:\u005cWINDOWS\u005cFonts\u005cntailub.ttf
p2461
aVc:\u005cwindows\u005cfonts\u005cocraext.ttf
p2462
aVC:\u005cWINDOWS\u005cFonts\u005csegoeuib.ttf
p2463
aVc:\u005cwindows\u005cfonts\u005clsansi.ttf
p2464
aVC:\u005cWINDOWS\u005cFonts\u005cBOD_BI.TTF
p2465
aVC:\u005cWINDOWS\u005cFonts\u005ccorbell.ttf
p2466
aVC:\u005cWINDOWS\u005cFonts\u005cGabriola.ttf
p2467
aVc:\u005cwindows\u005cfonts\u005cerasmd.ttf
p2468
aVc:\u005cwindows\u005cfonts\u005cverdanai.ttf
p2469
aVc:\u005cwindows\u005cfonts\u005cfradmit.ttf
p2470
aVC:\u005cWINDOWS\u005cFonts\u005cpala.ttf
p2471
aVC:\u005cWINDOWS\u005cFonts\u005cBOD_CBI.TTF
p2472
aVc:\u005cwindows\u005cfonts\u005csymbol.ttf
p2473
aVC:\u005cWINDOWS\u005cFonts\u005cMTCORSVA.TTF
p2474
aVC:\u005cWINDOWS\u005cFonts\u005csegoeprb.ttf
p2475
aVC:\u005cWINDOWS\u005cFonts\u005cLSANSI.TTF
p2476
aVc:\u005cwindows\u005cfonts\u005csylfaen.ttf
p2477
aVc:\u005cwindows\u005cfonts\u005croccb___.ttf
p2478
aVC:\u005cWINDOWS\u005cFonts\u005cAGENCYB.TTF
p2479
aVC:\u005cWINDOWS\u005cFonts\u005carial.ttf
p2480
aVC:\u005cWINDOWS\u005cFonts\u005cjavatext.ttf
p2481
aVC:\u005cWINDOWS\u005cFonts\u005cGILBI___.TTF
p2482
aVC:\u005cWINDOWS\u005cFonts\u005cpalabi.ttf
p2483
aVC:\u005cWINDOWS\u005cFonts\u005cPALSCRI.TTF
p2484
aVC:\u005cWINDOWS\u005cFonts\u005cLFAXI.TTF
p2485
aVc:\u005cwindows\u005cfonts\u005cnirmalas.ttf
p2486
aVc:\u005cwindows\u005cfonts\u005cschlbki.ttf
p2487
aVC:\u005cWINDOWS\u005cFonts\u005cmmrtext.ttf
p2488
aVC:\u005cWINDOWS\u005cFonts\u005cNirmala.ttf
p2489
aVC:\u005cWINDOWS\u005cFonts\u005cseguihis.ttf
p2490
aVC:\u005cWINDOWS\u005cFonts\u005cSNAP____.TTF
p2491
aVC:\u005cWINDOWS\u005cFonts\u005cBRITANIC.TTF
p2492
aVc:\u005cwindows\u005cfonts\u005conyx.ttf
p2493
aVc:\u005cwindows\u005cfonts\u005cgadugi.ttf
p2494
aVC:\u005cWINDOWS\u005cFonts\u005cseguisb.ttf
p2495
aVC:\u005cWINDOWS\u005cFonts\u005csegoeuisl.ttf
p2496
aVc:\u005cwindows\u005cfonts\u005cdubai-bold.ttf
p2497
aVC:\u005cWINDOWS\u005cFonts\u005ccour.ttf
p2498
aVC:\u005cWINDOWS\u005cFonts\u005cGILI____.TTF
p2499
aVC:\u005cWINDOWS\u005cFonts\u005cREFSPCL.TTF
p2500
aVc:\u005cwindows\u005cfonts\u005cbookosi.ttf
p2501
aVC:\u005cWINDOWS\u005cFonts\u005cFRADM.TTF
p2502
aVc:\u005cwindows\u005cfonts\u005cglecb.ttf
p2503
aVC:\u005cWINDOWS\u005cFonts\u005cWINGDNG2.TTF
p2504
aVc:\u005cwindows\u005cfonts\u005ctaile.ttf
p2505
aVc:\u005cwindows\u005cfonts\u005ccalibri.ttf
p2506
aVC:\u005cWINDOWS\u005cFonts\u005cFRAHVIT.TTF
p2507
aVC:\u005cWINDOWS\u005cFonts\u005ccalibrili.ttf
p2508
aVc:\u005cwindows\u005cfonts\u005ccentaur.ttf
p2509
aVC:\u005cWINDOWS\u005cFonts\u005cFRSCRIPT.TTF
p2510
aVc:\u005cwindows\u005cfonts\u005ccorbelli.ttf
p2511
aVc:\u005cwindows\u005cfonts\u005ccambriai.ttf
p2512
aVc:\u005cwindows\u005cfonts\u005ctcm_____.ttf
p2513
aVc:\u005cwindows\u005cfonts\u005cbernhc.ttf
p2514
aVC:\u005cWINDOWS\u005cFonts\u005ctahoma.ttf
p2515
aVC:\u005cWINDOWS\u005cFonts\u005cAGENCYR.TTF
p2516
aVc:\u005cwindows\u005cfonts\u005ccastelar.ttf
p2517
aVC:\u005cWINDOWS\u005cFonts\u005cGOTHICB.TTF
p2518
aVC:\u005cWINDOWS\u005cFonts\u005cHPSimplified_LtIt.ttf
p2519
aVC:\u005cWINDOWS\u005cFonts\u005cLeelaUIb.ttf
p2520
aVC:\u005cWINDOWS\u005cFonts\u005cframd.ttf
p2521
aVC:\u005cWINDOWS\u005cFonts\u005ccambriai.ttf
p2522
aVC:\u005cWINDOWS\u005cFonts\u005ccambriaz.ttf
p2523
aVc:\u005cwindows\u005cfonts\u005carialuni.ttf
p2524
aVc:\u005cwindows\u005cfonts\u005cebrimabd.ttf
p2525
aVc:\u005cwindows\u005cfonts\u005cgillubcd.ttf
p2526
aVC:\u005cWINDOWS\u005cFonts\u005ccorbel.ttf
p2527
aVC:\u005cWINDOWS\u005cFonts\u005cGLECB.TTF
p2528
aVC:\u005cWINDOWS\u005cFonts\u005cconsolaz.ttf
p2529
aVC:\u005cWINDOWS\u005cFonts\u005ccalibrib.ttf
p2530
aVC:\u005cWINDOWS\u005cFonts\u005cCOLONNA.TTF
p2531
aVc:\u005cwindows\u005cfonts\u005cperi____.ttf
p2532
aVC:\u005cWINDOWS\u005cFonts\u005cROCK.TTF
p2533
aVc:\u005cwindows\u005cfonts\u005cbkant.ttf
p2534
aVc:\u005cwindows\u005cfonts\u005ctcmi____.ttf
p2535
aVC:\u005cWINDOWS\u005cFonts\u005cCandarali.ttf
p2536
aVC:\u005cWINDOWS\u005cFonts\u005cFORTE.TTF
p2537
aVc:\u005cwindows\u005cfonts\u005csegoepr.ttf
p2538
aVc:\u005cwindows\u005cfonts\u005cmicross.ttf
p2539
aVc:\u005cwindows\u005cfonts\u005ctimes.ttf
p2540
aVc:\u005cwindows\u005cfonts\u005cwingdng2.ttf
p2541
aVc:\u005cwindows\u005cfonts\u005cconsolab.ttf
p2542
aVC:\u005cWINDOWS\u005cFonts\u005ctaileb.ttf
p2543
aVC:\u005cWINDOWS\u005cFonts\u005cLTYPEBO.TTF
p2544
aVc:\u005cwindows\u005cfonts\u005ccouri.ttf
p2545
aVC:\u005cWINDOWS\u005cFonts\u005cBRLNSDB.TTF
p2546
aVc:\u005cwindows\u005cfonts\u005cleelawad.ttf
p2547
aVc:\u005cwindows\u005cfonts\u005carial.ttf
p2548
aVc:\u005cwindows\u005cfonts\u005cbod_i.ttf
p2549
aVC:\u005cWINDOWS\u005cFonts\u005cBOD_PSTC.TTF
p2550
aVc:\u005cwindows\u005cfonts\u005cengr.ttf
p2551
aVC:\u005cWINDOWS\u005cFonts\u005cGOUDOSB.TTF
p2552
aVc:\u005cwindows\u005cfonts\u005cl_10646.ttf
p2553
aVC:\u005cWINDOWS\u005cFonts\u005cLFAX.TTF
p2554
aVc:\u005cwindows\u005cfonts\u005cdubai-medium.ttf
p2555
aVc:\u005cwindows\u005cfonts\u005crefsan.ttf
p2556
aVc:\u005cwindows\u005cfonts\u005cbookosb.ttf
p2557
aVC:\u005cWINDOWS\u005cFonts\u005cCALISTBI.TTF
p2558
aVc:\u005cwindows\u005cfonts\u005cfelixti.ttf
p2559
aVc:\u005cwindows\u005cfonts\u005cinkfree.ttf
p2560
aVc:\u005cwindows\u005cfonts\u005cpalai.ttf
p2561
aVc:\u005cwindows\u005cfonts\u005cfrahvit.ttf
p2562
aVC:\u005cWINDOWS\u005cFonts\u005cPAPYRUS.TTF
p2563
aVc:\u005cwindows\u005cfonts\u005ccalibrib.ttf
p2564
aVC:\u005cWINDOWS\u005cFonts\u005cFRAMDCN.TTF
p2565
aVc:\u005cwindows\u005cfonts\u005cbod_b.ttf
p2566
aVC:\u005cWINDOWS\u005cFonts\u005cgeorgiab.ttf
p2567
aVC:\u005cWINDOWS\u005cFonts\u005cROCKB.TTF
p2568
aVc:\u005cwindows\u005cfonts\u005cschlbkb.ttf
p2569
aVC:\u005cWINDOWS\u005cFonts\u005cseguisli.ttf
p2570
aVC:\u005cWINDOWS\u005cFonts\u005cARIALNB.TTF
p2571
aVc:\u005cwindows\u005cfonts\u005cchiller.ttf
p2572
aVc:\u005cwindows\u005cfonts\u005cconstan.ttf
p2573
aVC:\u005cWINDOWS\u005cFonts\u005cKUNSTLER.TTF
p2574
aVC:\u005cWINDOWS\u005cFonts\u005cmalgunbd.ttf
p2575
aVc:\u005cwindows\u005cfonts\u005ctrebuc.ttf
p2576
aVc:\u005cwindows\u005cfonts\u005cgil_____.ttf
p2577
aVC:\u005cWINDOWS\u005cFonts\u005cl_10646.ttf
p2578
aVc:\u005cwindows\u005cfonts\u005cmmrtext.ttf
p2579
aVC:\u005cWINDOWS\u005cFonts\u005cCENTAUR.TTF
p2580
aVC:\u005cWINDOWS\u005cFonts\u005cGOTHICBI.TTF
p2581
aVc:\u005cwindows\u005cfonts\u005ccour.ttf
p2582
aVc:\u005cwindows\u005cfonts\u005cjavatext.ttf
p2583
aVC:\u005cWINDOWS\u005cFonts\u005ccorbelz.ttf
p2584
aVc:\u005cwindows\u005cfonts\u005ccalifr.ttf
p2585
aVC:\u005cWINDOWS\u005cFonts\u005cwebdings.ttf
p2586
aVc:\u005cwindows\u005cfonts\u005ccenscbk.ttf
p2587
aVc:\u005cwindows\u005cfonts\u005ccandaral.ttf
p2588
aVC:\u005cWINDOWS\u005cFonts\u005cERASDEMI.TTF
p2589
aVC:\u005cWINDOWS\u005cFonts\u005cBOD_R.TTF
p2590
aVC:\u005cWINDOWS\u005cFonts\u005ctaile.ttf
p2591
aVc:\u005cwindows\u005cfonts\u005ctcbi____.ttf
p2592
aVC:\u005cWINDOWS\u005cFonts\u005cseguiemj.ttf
p2593
aVC:\u005cWINDOWS\u005cFonts\u005cHPSimplified_It.ttf
p2594
aVc:\u005cwindows\u005cfonts\u005cverdanab.ttf
p2595
aVc:\u005cwindows\u005cfonts\u005ccourbi.ttf
p2596
aVc:\u005cwindows\u005cfonts\u005cphagspa.ttf
p2597
aVc:\u005cwindows\u005cfonts\u005cwingdng3.ttf
p2598
aVC:\u005cWINDOWS\u005cFonts\u005cGLSNECB.TTF
p2599
aVc:\u005cwindows\u005cfonts\u005ccalistb.ttf
p2600
aVC:\u005cWINDOWS\u005cFonts\u005csimsunb.ttf
p2601
aVC:\u005cWINDOWS\u005cFonts\u005cBRUSHSCI.TTF
p2602
aVc:\u005cwindows\u005cfonts\u005ccalisti.ttf
p2603
aVc:\u005cwindows\u005cfonts\u005cvineritc.ttf
p2604
aVc:\u005cwindows\u005cfonts\u005cjokerman.ttf
p2605
aVC:\u005cWINDOWS\u005cFonts\u005cLBRITED.TTF
p2606
aVC:\u005cWINDOWS\u005cFonts\u005cntailu.ttf
p2607
aVC:\u005cWINDOWS\u005cFonts\u005cphagspa.ttf
p2608
aVc:\u005cwindows\u005cfonts\u005citcblkad.ttf
p2609
aVc:\u005cwindows\u005cfonts\u005cbaskvill.ttf
p2610
aVc:\u005cwindows\u005cfonts\u005cmalgunsl.ttf
p2611
aVC:\u005cWINDOWS\u005cFonts\u005cverdana.ttf
p2612
aVc:\u005cwindows\u005cfonts\u005crocki.ttf
p2613
aVC:\u005cWINDOWS\u005cFonts\u005cCALISTI.TTF
p2614
aVc:\u005cwindows\u005cfonts\u005cdubai-regular.ttf
p2615
aVc:\u005cwindows\u005cfonts\u005clsans.ttf
p2616
aVc:\u005cwindows\u005cfonts\u005cgarabd.ttf
p2617
aVc:\u005cwindows\u005cfonts\u005cseguibl.ttf
p2618
aVC:\u005cWINDOWS\u005cFonts\u005ccorbeli.ttf
p2619
aVC:\u005cWINDOWS\u005cFonts\u005cJUICE___.TTF
p2620
aVC:\u005cWINDOWS\u005cFonts\u005cROCKI.TTF
p2621
aVC:\u005cWINDOWS\u005cFonts\u005cNirmalaB.ttf
p2622
aVC:\u005cWINDOWS\u005cFonts\u005cconstan.ttf
p2623
aVC:\u005cWINDOWS\u005cFonts\u005cLBRITEI.TTF
p2624
aVc:\u005cwindows\u005cfonts\u005ccalist.ttf
p2625
aVc:\u005cwindows\u005cfonts\u005ccurlz___.ttf
p2626
aVC:\u005cWINDOWS\u005cFonts\u005csegoepr.ttf
p2627
aVc:\u005cwindows\u005cfonts\u005carialbi.ttf
p2628
aVC:\u005cWINDOWS\u005cFonts\u005cseguibl.ttf
p2629
aVc:\u005cwindows\u005cfonts\u005ctrebucit.ttf
p2630
aVc:\u005cwindows\u005cfonts\u005cbritanic.ttf
p2631
aVC:\u005cWINDOWS\u005cFonts\u005cITCBLKAD.TTF
p2632
aVc:\u005cwindows\u005cfonts\u005ccourbd.ttf
p2633
aVc:\u005cwindows\u005cfonts\u005cpertili.ttf
p2634
aVC:\u005cWINDOWS\u005cFonts\u005cpalab.ttf
p2635
aVc:\u005cwindows\u005cfonts\u005csimsunb.ttf
p2636
aVC:\u005cWINDOWS\u005cFonts\u005cverdanai.ttf
p2637
aVc:\u005cwindows\u005cfonts\u005cframdit.ttf
p2638
aVc:\u005cwindows\u005cfonts\u005cbauhs93.ttf
p2639
aVc:\u005cwindows\u005cfonts\u005clcallig.ttf
p2640
aVC:\u005cWINDOWS\u005cFonts\u005cTCCM____.TTF
p2641
aVC:\u005cWINDOWS\u005cFonts\u005cSCHLBKB.TTF
p2642
aVC:\u005cWINDOWS\u005cFonts\u005ctrebucbi.ttf
p2643
aVC:\u005cWINDOWS\u005cFonts\u005cGILC____.TTF
p2644
aVC:\u005cWINDOWS\u005cFonts\u005cmonbaiti.ttf
p2645
aVc:\u005cwindows\u005cfonts\u005ccolonna.ttf
p2646
aVc:\u005cwindows\u005cfonts\u005cerasbd.ttf
p2647
aVc:\u005cwindows\u005cfonts\u005cmsuighub.ttf
p2648
aVc:\u005cwindows\u005cfonts\u005ctimesbi.ttf
p2649
aVC:\u005cWINDOWS\u005cFonts\u005cCENTURY.TTF
p2650
aVc:\u005cwindows\u005cfonts\u005ccomicbd.ttf
p2651
aVc:\u005cwindows\u005cfonts\u005ccandarab.ttf
p2652
aVC:\u005cWINDOWS\u005cFonts\u005cPOORICH.TTF
p2653
aVc:\u005cwindows\u005cfonts\u005ctempsitc.ttf
p2654
aVC:\u005cWINDOWS\u005cFonts\u005cSHOWG.TTF
p2655
aVc:\u005cwindows\u005cfonts\u005cltypeo.ttf
p2656
aVC:\u005cWINDOWS\u005cFonts\u005cBELLI.TTF
p2657
aVC:\u005cWINDOWS\u005cFonts\u005ccomicbd.ttf
p2658
aVc:\u005cwindows\u005cfonts\u005cgoudysto.ttf
p2659
aVc:\u005cwindows\u005cfonts\u005chpsimplified_ltit.ttf
p2660
aVc:\u005cwindows\u005cfonts\u005ccalibrili.ttf
p2661
aVc:\u005cwindows\u005cfonts\u005cantquab.ttf
p2662
aVC:\u005cWINDOWS\u005cFonts\u005ccalibril.ttf
p2663
aVC:\u005cWINDOWS\u005cFonts\u005cLSANSDI.TTF
p2664
aVC:\u005cWINDOWS\u005cFonts\u005csegoeuil.ttf
p2665
aVc:\u005cwindows\u005cfonts\u005cglsnecb.ttf
p2666
aVC:\u005cWINDOWS\u005cFonts\u005cLTYPE.TTF
p2667
aVC:\u005cWINDOWS\u005cFonts\u005cconstanz.ttf
p2668
aVc:\u005cwindows\u005cfonts\u005cfrabk.ttf
p2669
aVC:\u005cWINDOWS\u005cFonts\u005cLTYPEO.TTF
p2670
aVC:\u005cWINDOWS\u005cFonts\u005chimalaya.ttf
p2671
aVC:\u005cWINDOWS\u005cFonts\u005cFRAHV.TTF
p2672
aVc:\u005cwindows\u005cfonts\u005cgoudosb.ttf
p2673
aVc:\u005cwindows\u005cfonts\u005ceraslght.ttf
p2674
aVC:\u005cWINDOWS\u005cFonts\u005cANTQUABI.TTF
p2675
aVc:\u005cwindows\u005cfonts\u005cconstanb.ttf
p2676
aVc:\u005cwindows\u005cfonts\u005cpertibd.ttf
p2677
aVc:\u005cwindows\u005cfonts\u005celephnti.ttf
p2678
aVc:\u005cwindows\u005cfonts\u005cgothicbi.ttf
p2679
aVC:\u005cWINDOWS\u005cFonts\u005ccorbelli.ttf
p2680
aVc:\u005cwindows\u005cfonts\u005charngton.ttf
p2681
aVc:\u005cwindows\u005cfonts\u005ccalibriz.ttf
p2682
aVC:\u005cWINDOWS\u005cFonts\u005cCALIFR.TTF
p2683
aVc:\u005cwindows\u005cfonts\u005ccomici.ttf
p2684
aVC:\u005cWINDOWS\u005cFonts\u005cBOOKOSB.TTF
p2685
aVC:\u005cWINDOWS\u005cFonts\u005cCOOPBL.TTF
p2686
aVC:\u005cWINDOWS\u005cFonts\u005cFELIXTI.TTF
p2687
aVC:\u005cWINDOWS\u005cFonts\u005cGILB____.TTF
p2688
aVc:\u005cwindows\u005cfonts\u005cgarait.ttf
p2689
aVC:\u005cWINDOWS\u005cFonts\u005cCALISTB.TTF
p2690
aVC:\u005cWINDOWS\u005cFonts\u005cSCHLBKI.TTF
p2691
aVc:\u005cwindows\u005cfonts\u005cnirmalab.ttf
p2692
aVC:\u005cWINDOWS\u005cFonts\u005cGIGI.TTF
p2693
aVc:\u005cwindows\u005cfonts\u005ccentury.ttf
p2694
aVc:\u005cwindows\u005cfonts\u005ccoprgtl.ttf
p2695
aVC:\u005cWINDOWS\u005cFonts\u005cebrimabd.ttf
p2696
aVc:\u005cwindows\u005cfonts\u005cgilb____.ttf
p2697
aVc:\u005cwindows\u005cfonts\u005cconstanz.ttf
p2698
aVc:\u005cwindows\u005cfonts\u005carialnb.ttf
p2699
aVc:\u005cwindows\u005cfonts\u005coutlook.ttf
p2700
aVC:\u005cWINDOWS\u005cFonts\u005cBSSYM7.TTF
p2701
aVc:\u005cwindows\u005cfonts\u005clfaxdi.ttf
p2702
aVc:\u005cwindows\u005cfonts\u005ccandara.ttf
p2703
aVc:\u005cwindows\u005cfonts\u005cseguiemj.ttf
p2704
aVC:\u005cWINDOWS\u005cFonts\u005cARLRDBD.TTF
p2705
aVC:\u005cWINDOWS\u005cFonts\u005cVIVALDII.TTF
p2706
aVc:\u005cwindows\u005cfonts\u005clfax.ttf
p2707
aVC:\u005cWINDOWS\u005cFonts\u005cCandaral.ttf
p2708
aVC:\u005cWINDOWS\u005cFonts\u005ccalibrii.ttf
p2709
aVC:\u005cWINDOWS\u005cFonts\u005cFRADMCN.TTF
p2710
aVC:\u005cWINDOWS\u005cFonts\u005cSCRIPTBL.TTF
p2711
aVc:\u005cwindows\u005cfonts\u005chatten.ttf
p2712
aVC:\u005cWINDOWS\u005cFonts\u005cseguisym.ttf
p2713
aVC:\u005cWINDOWS\u005cFonts\u005cMAGNETOB.TTF
p2714
aVC:\u005cWINDOWS\u005cFonts\u005cTCB_____.TTF
p2715
aVC:\u005cWINDOWS\u005cFonts\u005cLeelUIsl.ttf
p2716
aVc:\u005cwindows\u005cfonts\u005cbrlnsr.ttf
p2717
aVC:\u005cWINDOWS\u005cFonts\u005cROCC____.TTF
p2718
aVC:\u005cWINDOWS\u005cFonts\u005ctimesbi.ttf
p2719
aVC:\u005cWINDOWS\u005cFonts\u005csylfaen.ttf
p2720
aVc:\u005cwindows\u005cfonts\u005cmsyi.ttf
p2721
aVc:\u005cwindows\u005cfonts\u005cwingding.ttf
p2722
aVC:\u005cWINDOWS\u005cFonts\u005cMSUIGHUB.TTF
p2723
aVC:\u005cWINDOWS\u005cFonts\u005cLEELAWAD.TTF
p2724
aVc:\u005cwindows\u005cfonts\u005cbell.ttf
p2725
aVC:\u005cWINDOWS\u005cFonts\u005cMTEXTRA.TTF
p2726
aVc:\u005cwindows\u005cfonts\u005chpsimplified_lt.ttf
p2727
aVC:\u005cWINDOWS\u005cFonts\u005cJOKERMAN.TTF
p2728
aVc:\u005cwindows\u005cfonts\u005cdubai-light.ttf
p2729
aVC:\u005cWINDOWS\u005cFonts\u005cTCM_____.TTF
p2730
aVc:\u005cwindows\u005cfonts\u005csegoescb.ttf
p2731
aVC:\u005cWINDOWS\u005cFonts\u005cpalai.ttf
p2732
aVc:\u005cwindows\u005cfonts\u005cjuice___.ttf
p2733
aVc:\u005cwindows\u005cfonts\u005ccalibril.ttf
p2734
aVC:\u005cWINDOWS\u005cFonts\u005cPERB____.TTF
p2735
aVc:\u005cwindows\u005cfonts\u005cframdcn.ttf
p2736
aVC:\u005cWINDOWS\u005cFonts\u005cTCBI____.TTF
p2737
aVC:\u005cWINDOWS\u005cFonts\u005cRAGE.TTF
p2738
aVC:\u005cWINDOWS\u005cFonts\u005cseguisbi.ttf
p2739
aVc:\u005cwindows\u005cfonts\u005cpalab.ttf
p2740
aVc:\u005cwindows\u005cfonts\u005cbrushsci.ttf
p2741
aVC:\u005cWINDOWS\u005cFonts\u005cCandara.ttf
p2742
aVc:\u005cwindows\u005cfonts\u005cfreescpt.ttf
p2743
aVc:\u005cwindows\u005cfonts\u005cbod_ci.ttf
p2744
aVc:\u005cwindows\u005cfonts\u005cgilsanub.ttf
p2745
aVc:\u005cwindows\u005cfonts\u005cgigi.ttf
p2746
aVC:\u005cWINDOWS\u005cFonts\u005cLCALLIG.TTF
p2747
aVC:\u005cWINDOWS\u005cFonts\u005cBOD_B.TTF
p2748
aVC:\u005cWINDOWS\u005cFonts\u005cBASKVILL.TTF
p2749
aVc:\u005cwindows\u005cfonts\u005clatinwd.ttf
p2750
aVc:\u005cwindows\u005cfonts\u005chtowert.ttf
p2751
aVc:\u005cwindows\u005cfonts\u005cpapyrus.ttf
p2752
aVc:\u005cwindows\u005cfonts\u005clbritedi.ttf
p2753
aVC:\u005cWINDOWS\u005cFonts\u005cARIALNI.TTF
p2754
aVC:\u005cWINDOWS\u005cFonts\u005cBOD_CI.TTF
p2755
aVC:\u005cWINDOWS\u005cFonts\u005cHPSimplified_Rg.ttf
p2756
aVc:\u005cwindows\u005cfonts\u005celephnt.ttf
p2757
aVC:\u005cWINDOWS\u005cFonts\u005cSCHLBKBI.TTF
p2758
aVC:\u005cWINDOWS\u005cFonts\u005cBRADHITC.TTF
p2759
aVc:\u005cwindows\u005cfonts\u005cariblk.ttf
p2760
aVc:\u005cwindows\u005cfonts\u005cfradmcn.ttf
p2761
aVc:\u005cwindows\u005cfonts\u005cconsolaz.ttf
p2762
aVc:\u005cwindows\u005cfonts\u005cbookosbi.ttf
p2763
aVC:\u005cWINDOWS\u005cFonts\u005cVINERITC.TTF
p2764
aVC:\u005cWINDOWS\u005cFonts\u005cCALIST.TTF
p2765
aVC:\u005cWINDOWS\u005cFonts\u005cPRISTINA.TTF
p2766
aVC:\u005cWINDOWS\u005cFonts\u005cBAUHS93.TTF
p2767
aVC:\u005cWINDOWS\u005cFonts\u005cmvboli.ttf
p2768
aVC:\u005cWINDOWS\u005cFonts\u005cVLADIMIR.TTF
p2769
aVC:\u005cWINDOWS\u005cFonts\u005cconsola.ttf
p2770
aVC:\u005cWINDOWS\u005cFonts\u005cRAVIE.TTF
p2771
aVC:\u005cWINDOWS\u005cFonts\u005cmalgun.ttf
p2772
aVC:\u005cWINDOWS\u005cFonts\u005cPERI____.TTF
p2773
aVC:\u005cWINDOWS\u005cFonts\u005cLBRITEDI.TTF
p2774
aVc:\u005cwindows\u005cfonts\u005crock.ttf
p2775
aVc:\u005cwindows\u005cfonts\u005ccorbell.ttf
p2776
aVC:\u005cWINDOWS\u005cFonts\u005cDUBAI-REGULAR.TTF
p2777
aVc:\u005cwindows\u005cfonts\u005clsansdi.ttf
p2778
aVc:\u005cwindows\u005cfonts\u005ccorbeli.ttf
p2779
aVc:\u005cwindows\u005cfonts\u005ctcb_____.ttf
p2780
aVC:\u005cWINDOWS\u005cFonts\u005cmarlett.ttf
p2781
aVc:\u005cwindows\u005cfonts\u005crockbi.ttf
p2782
aVC:\u005cWINDOWS\u005cFonts\u005cGOUDOSI.TTF
p2783
aVC:\u005cWINDOWS\u005cFonts\u005cLFAXD.TTF
p2784
aVC:\u005cWINDOWS\u005cFonts\u005cFRABK.TTF
p2785
aVc:\u005cwindows\u005cfonts\u005cniagsol.ttf
p2786
aVc:\u005cwindows\u005cfonts\u005ccalibrii.ttf
p2787
aVc:\u005cwindows\u005cfonts\u005ctimesi.ttf
p2788
aVC:\u005cWINDOWS\u005cFonts\u005cINFROMAN.TTF
p2789
aVC:\u005cWINDOWS\u005cFonts\u005cGILSANUB.TTF
p2790
aVC:\u005cWINDOWS\u005cFonts\u005cLEELAWDB.TTF
p2791
aVC:\u005cWINDOWS\u005cFonts\u005cENGR.TTF
p2792
aVC:\u005cWINDOWS\u005cFonts\u005cCandarai.ttf
p2793
aVc:\u005cwindows\u005cfonts\u005cmsuighur.ttf
p2794
aVC:\u005cWINDOWS\u005cFonts\u005cOUTLOOK.TTF
p2795
aVC:\u005cWINDOWS\u005cFonts\u005ccouri.ttf
p2796
aVC:\u005cWINDOWS\u005cFonts\u005cWINGDNG3.TTF
p2797
aVC:\u005cWINDOWS\u005cFonts\u005ctrebucbd.ttf
p2798
aVC:\u005cWINDOWS\u005cFonts\u005cHATTEN.TTF
p2799
aVc:\u005cwindows\u005cfonts\u005calger.ttf
p2800
aVc:\u005cwindows\u005cfonts\u005cmaturasc.ttf
p2801
aVC:\u005cWINDOWS\u005cFonts\u005cSTENCIL.TTF
p2802
aVc:\u005cwindows\u005cfonts\u005cltype.ttf
p2803
aVC:\u005cWINDOWS\u005cFonts\u005cBOOKOS.TTF
p2804
aVC:\u005cWINDOWS\u005cFonts\u005ccourbd.ttf
p2805
aVc:\u005cwindows\u005cfonts\u005cpalscri.ttf
p2806
aVc:\u005cwindows\u005cfonts\u005cgothic.ttf
p2807
aVC:\u005cWINDOWS\u005cFonts\u005cCOPRGTL.TTF
p2808
aVc:\u005cwindows\u005cfonts\u005cseguili.ttf
p2809
aVC:\u005cWINDOWS\u005cFonts\u005cseguibli.ttf
p2810
aVc:\u005cwindows\u005cfonts\u005cmalgunbd.ttf
p2811
aVc:\u005cwindows\u005cfonts\u005cpristina.ttf
p2812
aVC:\u005cWINDOWS\u005cFonts\u005cverdanab.ttf
p2813
aVC:\u005cWINDOWS\u005cFonts\u005cframdit.ttf
p2814
aVC:\u005cWINDOWS\u005cFonts\u005cOLDENGL.TTF
p2815
aVC:\u005cWINDOWS\u005cFonts\u005ccorbelb.ttf
p2816
aVc:\u005cwindows\u005cfonts\u005cntailu.ttf
p2817
aVc:\u005cwindows\u005cfonts\u005cper_____.ttf
p2818
aVC:\u005cWINDOWS\u005cFonts\u005cCandarab.ttf
p2819
aVc:\u005cwindows\u005cfonts\u005cgara.ttf
p2820
aVc:\u005cwindows\u005cfonts\u005clfaxi.ttf
p2821
aVc:\u005cwindows\u005cfonts\u005cfrahv.ttf
p2822
aVC:\u005cWINDOWS\u005cFonts\u005cseguili.ttf
p2823
aVc:\u005cwindows\u005cfonts\u005ccandarali.ttf
p2824
aVc:\u005cwindows\u005cfonts\u005cleelawdb.ttf
p2825
aVc:\u005cwindows\u005cfonts\u005cgeorgiaz.ttf
p2826
aVC:\u005cWINDOWS\u005cFonts\u005cverdanaz.ttf
p2827
aVc:\u005cwindows\u005cfonts\u005cwebdings.ttf
p2828
aVC:\u005cWINDOWS\u005cFonts\u005cgadugi.ttf
p2829
aVC:\u005cWINDOWS\u005cFonts\u005ctahomabd.ttf
p2830
aVc:\u005cwindows\u005cfonts\u005cconsolai.ttf
p2831
aVc:\u005cwindows\u005cfonts\u005crefspcl.ttf
p2832
aVC:\u005cWINDOWS\u005cFonts\u005cconsolai.ttf
p2833
aVC:\u005cWINDOWS\u005cFonts\u005ccambriab.ttf
p2834
aVC:\u005cWINDOWS\u005cFonts\u005cLFAXDI.TTF
p2835
aVc:\u005cwindows\u005cfonts\u005cgoudosi.ttf
p2836
aVC:\u005cWINDOWS\u005cFonts\u005cONYX.TTF
p2837
aVc:\u005cwindows\u005cfonts\u005chpsimplified_bdit.ttf
p2838
aVc:\u005cwindows\u005cfonts\u005cantquai.ttf
p2839
aVc:\u005cwindows\u005cfonts\u005cgeorgia.ttf
p2840
aVc:\u005cwindows\u005cfonts\u005clbrite.ttf
p2841
aVc:\u005cwindows\u005cfonts\u005csegoeuii.ttf
p2842
aVc:\u005cwindows\u005cfonts\u005cfrscript.ttf
p2843
aVC:\u005cWINDOWS\u005cFonts\u005cNIAGENG.TTF
p2844
aVc:\u005cwindows\u005cfonts\u005cmonbaiti.ttf
p2845
aVC:\u005cWINDOWS\u005cFonts\u005cLBRITE.TTF
p2846
aVC:\u005cWINDOWS\u005cFonts\u005cLTYPEB.TTF
p2847
aVc:\u005cwindows\u005cfonts\u005cseguihis.ttf
p2848
aVc:\u005cwindows\u005cfonts\u005cbod_blar.ttf
p2849
aVc:\u005cwindows\u005cfonts\u005ccoprgtb.ttf
p2850
aVc:\u005cwindows\u005cfonts\u005ccorbel.ttf
p2851
aVC:\u005cWINDOWS\u005cFonts\u005csegoesc.ttf
p2852
aVc:\u005cwindows\u005cfonts\u005cgilc____.ttf
p2853
aVC:\u005cWINDOWS\u005cFonts\u005cLeelawUI.ttf
p2854
aVc:\u005cwindows\u005cfonts\u005cmistral.ttf
p2855
aVC:\u005cWINDOWS\u005cFonts\u005ccomicz.ttf
p2856
aVC:\u005cWINDOWS\u005cFonts\u005cALGER.TTF
p2857
aVc:\u005cwindows\u005cfonts\u005crocc____.ttf
p2858
aVc:\u005cwindows\u005cfonts\u005csegoesc.ttf
p2859
aVc:\u005cwindows\u005cfonts\u005csegoeuisl.ttf
p2860
aVC:\u005cWINDOWS\u005cFonts\u005ctimesbd.ttf
p2861
aVC:\u005cWINDOWS\u005cFonts\u005cgeorgia.ttf
p2862
aVc:\u005cwindows\u005cfonts\u005ccorbelz.ttf
p2863
aVC:\u005cWINDOWS\u005cFonts\u005cGOTHICI.TTF
p2864
aVC:\u005cWINDOWS\u005cFonts\u005cTCCB____.TTF
p2865
aVC:\u005cWINDOWS\u005cFonts\u005cHARLOWSI.TTF
p2866
aVC:\u005cWINDOWS\u005cFonts\u005csegoeui.ttf
p2867
aVc:\u005cwindows\u005cfonts\u005ctccm____.ttf
p2868
aVc:\u005cwindows\u005cfonts\u005ccandarai.ttf
p2869
aVc:\u005cwindows\u005cfonts\u005ccomic.ttf
p2870
aVc:\u005cwindows\u005cfonts\u005csegoeprb.ttf
p2871
aVc:\u005cwindows\u005cfonts\u005cmmrtextb.ttf
p2872
aVc:\u005cwindows\u005cfonts\u005ctahoma.ttf
p2873
aVc:\u005cwindows\u005cfonts\u005cgothicb.ttf
p2874
aVC:\u005cWINDOWS\u005cFonts\u005cGILLUBCD.TTF
p2875
aVc:\u005cwindows\u005cfonts\u005cbrlnsb.ttf
p2876
aVC:\u005cWINDOWS\u005cFonts\u005cHPSimplified_BdIt.ttf
p2877
aVc:\u005cwindows\u005cfonts\u005cvivaldii.ttf
p2878
aVC:\u005cWINDOWS\u005cFonts\u005cGOUDYSTO.TTF
p2879
aVc:\u005cwindows\u005cfonts\u005cbookos.ttf
p2880
aVC:\u005cWINDOWS\u005cFonts\u005cMAIAN.TTF
p2881
aVc:\u005cwindows\u005cfonts\u005cframd.ttf
p2882
aVC:\u005cWINDOWS\u005cFonts\u005carialbd.ttf
p2883
aVc:\u005cwindows\u005cfonts\u005cbrlnsdb.ttf
p2884
aVc:\u005cwindows\u005cfonts\u005cperb____.ttf
p2885
aVC:\u005cWINDOWS\u005cFonts\u005cphagspab.ttf
p2886
aVc:\u005cwindows\u005cfonts\u005ccomicz.ttf
p2887
aVc:\u005cwindows\u005cfonts\u005crage.ttf
p2888
aVc:\u005cwindows\u005cfonts\u005carialnbi.ttf
p2889
aVc:\u005cwindows\u005cfonts\u005cbod_cb.ttf
p2890
aVC:\u005cWINDOWS\u005cFonts\u005csegoeuii.ttf
p2891
aVC:\u005cWINDOWS\u005cFonts\u005ctrebucit.ttf
p2892
aVc:\u005cwindows\u005cfonts\u005cparchm.ttf
p2893
aVc:\u005cwindows\u005cfonts\u005charlowsi.ttf
p2894
aVC:\u005cWINDOWS\u005cFonts\u005clucon.ttf
p2895
aVc:\u005cwindows\u005cfonts\u005cseguisli.ttf
p2896
aVc:\u005cwindows\u005cfonts\u005cimpact.ttf
p2897
aVc:\u005cwindows\u005cfonts\u005cmalgun.ttf
p2898
aVC:\u005cWINDOWS\u005cFonts\u005cbahnschrift.ttf
p2899
aVC:\u005cWINDOWS\u005cFonts\u005cCENSCBK.TTF
p2900
aVC:\u005cWINDOWS\u005cFonts\u005cELEPHNTI.TTF
p2901
aVc:\u005cwindows\u005cfonts\u005cshowg.ttf
p2902
aVc:\u005cwindows\u005cfonts\u005carialni.ttf
p2903
aVC:\u005cWINDOWS\u005cFonts\u005cLSANS.TTF
p2904
aVC:\u005cWINDOWS\u005cFonts\u005cELEPHNT.TTF
p2905
aVc:\u005cwindows\u005cfonts\u005cgothici.ttf
p2906
aVC:\u005cWINDOWS\u005cFonts\u005cDUBAI-LIGHT.TTF
p2907
aVC:\u005cWINDOWS\u005cFonts\u005cebrima.ttf
p2908
aVC:\u005cWINDOWS\u005cFonts\u005cOCRAEXT.TTF
p2909
aVC:\u005cWINDOWS\u005cFonts\u005cTEMPSITC.TTF
p2910
aVC:\u005cWINDOWS\u005cFonts\u005cCALIFB.TTF
p2911
aVC:\u005cWINDOWS\u005cFonts\u005cmsyi.ttf
p2912
aVc:\u005cwindows\u005cfonts\u005cgeorgiai.ttf
p2913
aVC:\u005cWINDOWS\u005cFonts\u005cERASLGHT.TTF
p2914
aVc:\u005cwindows\u005cfonts\u005chimalaya.ttf
p2915
aVc:\u005cwindows\u005cfonts\u005cforte.ttf
p2916
aVC:\u005cWINDOWS\u005cFonts\u005cmmrtextb.ttf
p2917
aVc:\u005cwindows\u005cfonts\u005cpala.ttf
p2918
aVC:\u005cWINDOWS\u005cFonts\u005csegoescb.ttf
p2919
aVC:\u005cWINDOWS\u005cFonts\u005cmalgunsl.ttf
p2920
aVc:\u005cwindows\u005cfonts\u005cgoudos.ttf
p2921
aVc:\u005cwindows\u005cfonts\u005cleelawui.ttf
p2922
aVC:\u005cWINDOWS\u005cFonts\u005cMSUIGHUR.TTF
p2923
aVc:\u005cwindows\u005cfonts\u005cstencil.ttf
p2924
aVc:\u005cwindows\u005cfonts\u005cseguisym.ttf
p2925
aVc:\u005cwindows\u005cfonts\u005csnap____.ttf
p2926
aVc:\u005cwindows\u005cfonts\u005ccandaraz.ttf
p2927
aVc:\u005cwindows\u005cfonts\u005cagencyr.ttf
p2928
aVc:\u005cwindows\u005cfonts\u005citcedscr.ttf
p2929
aVC:\u005cWINDOWS\u005cFonts\u005cBELLB.TTF
p2930
aVc:\u005cwindows\u005cfonts\u005ccambriaz.ttf
p2931
aVc:\u005cwindows\u005cfonts\u005ccalistbi.ttf
p2932
aVC:\u005cWINDOWS\u005cFonts\u005cGARABD.TTF
p2933
aVC:\u005cWINDOWS\u005cFonts\u005cBERNHC.TTF
p2934
aVC:\u005cWINDOWS\u005cFonts\u005cFRABKIT.TTF
p2935
aVc:\u005cwindows\u005cfonts\u005cgeorgiab.ttf
p2936
aVC:\u005cWINDOWS\u005cFonts\u005cERASMD.TTF
p2937
aVC:\u005cWINDOWS\u005cFonts\u005cDUBAI-MEDIUM.TTF
p2938
aVC:\u005cWINDOWS\u005cFonts\u005cBOD_BLAI.TTF
p2939
aVC:\u005cWINDOWS\u005cFonts\u005csegoeuiz.ttf
p2940
aVc:\u005cwindows\u005cfonts\u005cniageng.ttf
p2941
aVC:\u005cWINDOWS\u005cFonts\u005cHARNGTON.TTF
p2942
aVc:\u005cwindows\u005cfonts\u005clsansd.ttf
p2943
aVc:\u005cwindows\u005cfonts\u005csegoeuib.ttf
p2944
aVc:\u005cwindows\u005cfonts\u005cgadugib.ttf
p2945
aVC:\u005cWINDOWS\u005cFonts\u005cNirmalaS.ttf
p2946
aVC:\u005cWINDOWS\u005cFonts\u005cNIAGSOL.TTF
p2947
aVC:\u005cWINDOWS\u005cFonts\u005cBROADW.TTF
p2948
aVc:\u005cwindows\u005cfonts\u005csegoeuil.ttf
p2949
aVc:\u005cwindows\u005cfonts\u005clbritei.ttf
p2950
aVc:\u005cwindows\u005cfonts\u005chtowerti.ttf
p2951
aVC:\u005cWINDOWS\u005cFonts\u005cBRLNSB.TTF
p2952
aVc:\u005cwindows\u005cfonts\u005citckrist.ttf
p2953
aVc:\u005cwindows\u005cfonts\u005clbrited.ttf
p2954
aVC:\u005cWINDOWS\u005cFonts\u005cROCKBI.TTF
p2955
aVC:\u005cWINDOWS\u005cFonts\u005ctimes.ttf
p2956
aVC:\u005cWINDOWS\u005cFonts\u005cBOOKOSBI.TTF
p2957
aVC:\u005cWINDOWS\u005cFonts\u005cHTOWERT.TTF
p2958
aVc:\u005cwindows\u005cfonts\u005cebrima.ttf
p2959
aVc:\u005cwindows\u005cfonts\u005cbradhitc.ttf
p2960
aVC:\u005cWINDOWS\u005cFonts\u005ctrebuc.ttf
p2961
aVC:\u005cWINDOWS\u005cFonts\u005cARIALN.TTF
p2962
aVC:\u005cWINDOWS\u005cFonts\u005csymbol.ttf
p2963
aVC:\u005cWINDOWS\u005cFonts\u005cBOD_CB.TTF
p2964
aVC:\u005cWINDOWS\u005cFonts\u005cconsolab.ttf
p2965
aVC:\u005cWINDOWS\u005cFonts\u005cITCEDSCR.TTF
p2966
aVc:\u005cwindows\u005cfonts\u005cvladimir.ttf
p2967
aVc:\u005cwindows\u005cfonts\u005cleelauib.ttf
p2968
aVC:\u005cWINDOWS\u005cFonts\u005cFREESCPT.TTF
p2969
aVc:\u005cwindows\u005cfonts\u005cbssym7.ttf
p2970
aVC:\u005cWINDOWS\u005cFonts\u005cholomdl2.ttf
p2971
aVC:\u005cWINDOWS\u005cFonts\u005csegmdl2.ttf
p2972
aVC:\u005cWINDOWS\u005cFonts\u005ccalibri.ttf
p2973
aVc:\u005cwindows\u005cfonts\u005cleeluisl.ttf
p2974
aVc:\u005cwindows\u005cfonts\u005chpsimplified_bd.ttf
p2975
aVC:\u005cWINDOWS\u005cFonts\u005cGOUDOS.TTF
p2976
aVc:\u005cwindows\u005cfonts\u005cverdana.ttf
p2977
aVc:\u005cwindows\u005cfonts\u005clhandw.ttf
p2978
aVc:\u005cwindows\u005cfonts\u005chpsimplified_it.ttf
p2979
aVC:\u005cWINDOWS\u005cFonts\u005ccourbi.ttf
p2980
aVc:\u005cwindows\u005cfonts\u005crockeb.ttf
p2981
aVC:\u005cWINDOWS\u005cFonts\u005cBOOKOSI.TTF
p2982
aVc:\u005cwindows\u005cfonts\u005ctimesbd.ttf
p2983
aVc:\u005cwindows\u005cfonts\u005crockb.ttf
p2984
aVC:\u005cWINDOWS\u005cFonts\u005cGARAIT.TTF
p2985
aVc:\u005cwindows\u005cfonts\u005cplaybill.ttf
p2986
aVc:\u005cwindows\u005cfonts\u005cltypeb.ttf
p2987
aVC:\u005cWINDOWS\u005cFonts\u005cGARA.TTF
p2988
aVC:\u005cWINDOWS\u005cFonts\u005cCALIFI.TTF
p2989
aVc:\u005cwindows\u005cfonts\u005cbod_r.ttf
p2990
aVc:\u005cwindows\u005cfonts\u005cphagspab.ttf
p2991
aVC:\u005cWINDOWS\u005cFonts\u005cREFSAN.TTF
p2992
aVC:\u005cWINDOWS\u005cFonts\u005ccalibriz.ttf
p2993
aVc:\u005cwindows\u005cfonts\u005cbod_pstc.ttf
p2994
aVc:\u005cwindows\u005cfonts\u005cconstani.ttf
p2995
aVC:\u005cWINDOWS\u005cFonts\u005cgadugib.ttf
p2996
aVC:\u005cWINDOWS\u005cFonts\u005cLSANSD.TTF
p2997
aVC:\u005cWINDOWS\u005cFonts\u005cLATINWD.TTF
p2998
aVC:\u005cWINDOWS\u005cFonts\u005cCOPRGTB.TTF
p2999
aVC:\u005cWINDOWS\u005cFonts\u005cDUBAI-BOLD.TTF
p3000
aVc:\u005cwindows\u005cfonts\u005cholomdl2.ttf
p3001
aVc:\u005cwindows\u005cfonts\u005cgabriola.ttf
p3002
aVC:\u005cWINDOWS\u005cFonts\u005cIMPRISHA.TTF
p3003
aVC:\u005cWINDOWS\u005cFonts\u005cFTLTLT.TTF
p3004
aVc:\u005cwindows\u005cfonts\u005cperbi___.ttf
p3005
aVc:\u005cwindows\u005cfonts\u005cpalabi.ttf
p3006
aVc:\u005cwindows\u005cfonts\u005clucon.ttf
p3007
aVc:\u005cwindows\u005cfonts\u005cravie.ttf
p3008
aVC:\u005cWINDOWS\u005cFonts\u005ccomic.ttf
p3009
aVc:\u005cwindows\u005cfonts\u005ctcceb.ttf
p3010
aVc:\u005cwindows\u005cfonts\u005cerasdemi.ttf
p3011
aVC:\u005cWINDOWS\u005cFonts\u005cBKANT.TTF
p3012
aVC:\u005cWINDOWS\u005cFonts\u005cMISTRAL.TTF
p3013
aVC:\u005cWINDOWS\u005cFonts\u005cHPSimplified_Lt.ttf
p3014
aVc:\u005cwindows\u005cfonts\u005cscriptbl.ttf
p3015
aVC:\u005cWINDOWS\u005cFonts\u005cMATURASC.TTF
p3016
aVC:\u005cWINDOWS\u005cFonts\u005carialbi.ttf
p3017
aVc:\u005cwindows\u005cfonts\u005coldengl.ttf
p3018
aVc:\u005cwindows\u005cfonts\u005cmvboli.ttf
p3019
aVc:\u005cwindows\u005cfonts\u005cbellb.ttf
p3020
aVc:\u005cwindows\u005cfonts\u005carlrdbd.ttf
p3021
aVC:\u005cWINDOWS\u005cFonts\u005cBELL.TTF
p3022
aVC:\u005cWINDOWS\u005cFonts\u005cARIALUNI.TTF
p3023
aVC:\u005cWINDOWS\u005cFonts\u005cariali.ttf
p3024
aVc:\u005cwindows\u005cfonts\u005csegmdl2.ttf
p3025
aVc:\u005cwindows\u005cfonts\u005cpoorich.ttf
p3026
aVc:\u005cwindows\u005cfonts\u005cntailub.ttf
p3027
aVc:\u005cwindows\u005cfonts\u005cbod_cbi.ttf
p3028
aVc:\u005cwindows\u005cfonts\u005cbroadw.ttf
p3029
aVC:\u005cWINDOWS\u005cFonts\u005cMOD20.TTF
p3030
aVC:\u005cWINDOWS\u005cFonts\u005cwingding.ttf
p3031
asS'_FontManager__default_weight'
p3032
g13
sS'_version'
p3033
I101
sS'ttf_lookup_cache'
p3034
(dp3035
sS'default_size'
p3036
NsS'defaultFont'
p3037
(dp3038
g2337
S'C:\\PROGRA~1\\QGISPI~1\\apps\\Python27\\lib\\site-packages\\matplotlib-1.3.1-py2.7-win-amd64.egg\\matplotlib\\mpl-data\\fonts\\afm\\phvro8a.afm'
p3039
sg2339
g2361
ssS'afmfiles'
p3040
(lp3041
g3039
aS'C:\\PROGRA~1\\QGISPI~1\\apps\\Python27\\lib\\site-packages\\matplotlib-1.3.1-py2.7-win-amd64.egg\\matplotlib\\mpl-data\\fonts\\afm\\pbkd8a.afm'
p3042
aS'C:\\PROGRA~1\\QGISPI~1\\apps\\Python27\\lib\\site-packages\\matplotlib-1.3.1-py2.7-win-amd64.egg\\matplotlib\\mpl-data\\fonts\\afm\\pplri8a.afm'
p3043
aS'C:\\PROGRA~1\\QGISPI~1\\apps\\Python27\\lib\\site-packages\\matplotlib-1.3.1-py2.7-win-amd64.egg\\matplotlib\\mpl-data\\fonts\\pdfcorefonts\\Courier-Bold.afm'
p3044
aS'C:\\PROGRA~1\\QGISPI~1\\apps\\Python27\\lib\\site-packages\\matplotlib-1.3.1-py2.7-win-amd64.egg\\matplotlib\\mpl-data\\fonts\\afm\\pcrbo8a.afm'
p3045
aS'C:\\PROGRA~1\\QGISPI~1\\apps\\Python27\\lib\\site-packages\\matplotlib-1.3.1-py2.7-win-amd64.egg\\matplotlib\\mpl-data\\fonts\\afm\\putb8a.afm'
p3046
aS'C:\\PROGRA~1\\QGISPI~1\\apps\\Python27\\lib\\site-packages\\matplotlib-1.3.1-py2.7-win-amd64.egg\\matplotlib\\mpl-data\\fonts\\afm\\pbkdi8a.afm'
p3047
aS'C:\\PROGRA~1\\QGISPI~1\\apps\\Python27\\lib\\site-packages\\matplotlib-1.3.1-py2.7-win-amd64.egg\\matplotlib\\mpl-data\\fonts\\afm\\phvr8a.afm'
p3048
aS'C:\\PROGRA~1\\QGISPI~1\\apps\\Python27\\lib\\site-packages\\matplotlib-1.3.1-py2.7-win-amd64.egg\\matplotlib\\mpl-data\\fonts\\afm\\pagk8a.afm'
p3049
aS'C:\\PROGRA~1\\QGISPI~1\\apps\\Python27\\lib\\site-packages\\matplotlib-1.3.1-py2.7-win-amd64.egg\\matplotlib\\mpl-data\\fonts\\afm\\cmtt10.afm'
p3050
aS'C:\\PROGRA~1\\QGISPI~1\\apps\\Python27\\lib\\site-packages\\matplotlib-1.3.1-py2.7-win-amd64.egg\\matplotlib\\mpl-data\\fonts\\afm\\putbi8a.afm'
p3051
aS'C:\\PROGRA~1\\QGISPI~1\\apps\\Python27\\lib\\site-packages\\matplotlib-1.3.1-py2.7-win-amd64.egg\\matplotlib\\mpl-data\\fonts\\pdfcorefonts\\Times-Bold.afm'
p3052
aS'C:\\PROGRA~1\\QGISPI~1\\apps\\Python27\\lib\\site-packages\\matplotlib-1.3.1-py2.7-win-amd64.egg\\matplotlib\\mpl-data\\fonts\\pdfcorefonts\\Symbol.afm'
p3053
aS'C:\\PROGRA~1\\QGISPI~1\\apps\\Python27\\lib\\site-packages\\matplotlib-1.3.1-py2.7-win-amd64.egg\\matplotlib\\mpl-data\\fonts\\afm\\ptmbi8a.afm'
p3054
aS'C:\\PROGRA~1\\QGISPI~1\\apps\\Python27\\lib\\site-packages\\matplotlib-1.3.1-py2.7-win-amd64.egg\\matplotlib\\mpl-data\\fonts\\afm\\phvb8a.afm'
p3055
aS'C:\\PROGRA~1\\QGISPI~1\\apps\\Python27\\lib\\site-packages\\matplotlib-1.3.1-py2.7-win-amd64.egg\\matplotlib\\mpl-data\\fonts\\pdfcorefonts\\Times-Roman.afm'
p3056
aS'C:\\PROGRA~1\\QGISPI~1\\apps\\Python27\\lib\\site-packages\\matplotlib-1.3.1-py2.7-win-amd64.egg\\matplotlib\\mpl-data\\fonts\\pdfcorefonts\\Courier.afm'
p3057
aS'C:\\PROGRA~1\\QGISPI~1\\apps\\Python27\\lib\\site-packages\\matplotlib-1.3.1-py2.7-win-amd64.egg\\matplotlib\\mpl-data\\fonts\\afm\\pcrr8a.afm'
p3058
aS'C:\\PROGRA~1\\QGISPI~1\\apps\\Python27\\lib\\site-packages\\matplotlib-1.3.1-py2.7-win-amd64.egg\\matplotlib\\mpl-data\\fonts\\pdfcorefonts\\Courier-Oblique.afm'
p3059
aS'C:\\PROGRA~1\\QGISPI~1\\apps\\Python27\\lib\\site-packages\\matplotlib-1.3.1-py2.7-win-amd64.egg\\matplotlib\\mpl-data\\fonts\\afm\\ptmri8a.afm'
p3060
aS'C:\\PROGRA~1\\QGISPI~1\\apps\\Python27\\lib\\site-packages\\matplotlib-1.3.1-py2.7-win-amd64.egg\\matplotlib\\mpl-data\\fonts\\pdfcorefonts\\Times-BoldItalic.afm'
p3061
aS'C:\\PROGRA~1\\QGISPI~1\\apps\\Python27\\lib\\site-packages\\matplotlib-1.3.1-py2.7-win-amd64.egg\\matplotlib\\mpl-data\\fonts\\afm\\pplbi8a.afm'
p3062
aS'C:\\PROGRA~1\\QGISPI~1\\apps\\Python27\\lib\\site-packages\\matplotlib-1.3.1-py2.7-win-amd64.egg\\matplotlib\\mpl-data\\fonts\\afm\\cmex10.afm'
p3063
aS'C:\\PROGRA~1\\QGISPI~1\\apps\\Python27\\lib\\site-packages\\matplotlib-1.3.1-py2.7-win-amd64.egg\\matplotlib\\mpl-data\\fonts\\afm\\pcrro8a.afm'
p3064
aS'C:\\PROGRA~1\\QGISPI~1\\apps\\Python27\\lib\\site-packages\\matplotlib-1.3.1-py2.7-win-amd64.egg\\matplotlib\\mpl-data\\fonts\\afm\\pzcmi8a.afm'
p3065
aS'C:\\PROGRA~1\\QGISPI~1\\apps\\Python27\\lib\\site-packages\\matplotlib-1.3.1-py2.7-win-amd64.egg\\matplotlib\\mpl-data\\fonts\\afm\\pagko8a.afm'
p3066
aS'C:\\PROGRA~1\\QGISPI~1\\apps\\Python27\\lib\\site-packages\\matplotlib-1.3.1-py2.7-win-amd64.egg\\matplotlib\\mpl-data\\fonts\\afm\\ptmr8a.afm'
p3067
aS'C:\\PROGRA~1\\QGISPI~1\\apps\\Python27\\lib\\site-packages\\matplotlib-1.3.1-py2.7-win-amd64.egg\\matplotlib\\mpl-data\\fonts\\pdfcorefonts\\Times-Italic.afm'
p3068
aS'C:\\PROGRA~1\\QGISPI~1\\apps\\Python27\\lib\\site-packages\\matplotlib-1.3.1-py2.7-win-amd64.egg\\matplotlib\\mpl-data\\fonts\\afm\\putr8a.afm'
p3069
aS'C:\\PROGRA~1\\QGISPI~1\\apps\\Python27\\lib\\site-packages\\matplotlib-1.3.1-py2.7-win-amd64.egg\\matplotlib\\mpl-data\\fonts\\afm\\pplr8a.afm'
p3070
aS'C:\\PROGRA~1\\QGISPI~1\\apps\\Python27\\lib\\site-packages\\matplotlib-1.3.1-py2.7-win-amd64.egg\\matplotlib\\mpl-data\\fonts\\afm\\putri8a.afm'
p3071
aS'C:\\PROGRA~1\\QGISPI~1\\apps\\Python27\\lib\\site-packages\\matplotlib-1.3.1-py2.7-win-amd64.egg\\matplotlib\\mpl-data\\fonts\\afm\\phvbo8an.afm'
p3072
aS'C:\\PROGRA~1\\QGISPI~1\\apps\\Python27\\lib\\site-packages\\matplotlib-1.3.1-py2.7-win-amd64.egg\\matplotlib\\mpl-data\\fonts\\afm\\pcrb8a.afm'
p3073
aS'C:\\PROGRA~1\\QGISPI~1\\apps\\Python27\\lib\\site-packages\\matplotlib-1.3.1-py2.7-win-amd64.egg\\matplotlib\\mpl-data\\fonts\\afm\\pncb8a.afm'
p3074
aS'C:\\PROGRA~1\\QGISPI~1\\apps\\Python27\\lib\\site-packages\\matplotlib-1.3.1-py2.7-win-amd64.egg\\matplotlib\\mpl-data\\fonts\\afm\\pplb8a.afm'
p3075
aS'C:\\PROGRA~1\\QGISPI~1\\apps\\Python27\\lib\\site-packages\\matplotlib-1.3.1-py2.7-win-amd64.egg\\matplotlib\\mpl-data\\fonts\\pdfcorefonts\\ZapfDingbats.afm'
p3076
aS'C:\\PROGRA~1\\QGISPI~1\\apps\\Python27\\lib\\site-packages\\matplotlib-1.3.1-py2.7-win-amd64.egg\\matplotlib\\mpl-data\\fonts\\afm\\ptmb8a.afm'
p3077
aS'C:\\PROGRA~1\\QGISPI~1\\apps\\Python27\\lib\\site-packages\\matplotlib-1.3.1-py2.7-win-amd64.egg\\matplotlib\\mpl-data\\fonts\\afm\\cmsy10.afm'
p3078
aS'C:\\PROGRA~1\\QGISPI~1\\apps\\Python27\\lib\\site-packages\\matplotlib-1.3.1-py2.7-win-amd64.egg\\matplotlib\\mpl-data\\fonts\\afm\\phvl8a.afm'
p3079
aS'C:\\PROGRA~1\\QGISPI~1\\apps\\Python27\\lib\\site-packages\\matplotlib-1.3.1-py2.7-win-amd64.egg\\matplotlib\\mpl-data\\fonts\\afm\\cmmi10.afm'
p3080
aS'C:\\PROGRA~1\\QGISPI~1\\apps\\Python27\\lib\\site-packages\\matplotlib-1.3.1-py2.7-win-amd64.egg\\matplotlib\\mpl-data\\fonts\\afm\\pbkl8a.afm'
p3081
aS'C:\\PROGRA~1\\QGISPI~1\\apps\\Python27\\lib\\site-packages\\matplotlib-1.3.1-py2.7-win-amd64.egg\\matplotlib\\mpl-data\\fonts\\afm\\phvb8an.afm'
p3082
aS'C:\\PROGRA~1\\QGISPI~1\\apps\\Python27\\lib\\site-packages\\matplotlib-1.3.1-py2.7-win-amd64.egg\\matplotlib\\mpl-data\\fonts\\afm\\phvlo8a.afm'
p3083
aS'C:\\PROGRA~1\\QGISPI~1\\apps\\Python27\\lib\\site-packages\\matplotlib-1.3.1-py2.7-win-amd64.egg\\matplotlib\\mpl-data\\fonts\\afm\\cmr10.afm'
p3084
aS'C:\\PROGRA~1\\QGISPI~1\\apps\\Python27\\lib\\site-packages\\matplotlib-1.3.1-py2.7-win-amd64.egg\\matplotlib\\mpl-data\\fonts\\afm\\pbkli8a.afm'
p3085
aS'C:\\PROGRA~1\\QGISPI~1\\apps\\Python27\\lib\\site-packages\\matplotlib-1.3.1-py2.7-win-amd64.egg\\matplotlib\\mpl-data\\fonts\\afm\\pagd8a.afm'
p3086
aS'C:\\PROGRA~1\\QGISPI~1\\apps\\Python27\\lib\\site-packages\\matplotlib-1.3.1-py2.7-win-amd64.egg\\matplotlib\\mpl-data\\fonts\\afm\\phvro8an.afm'
p3087
aS'C:\\PROGRA~1\\QGISPI~1\\apps\\Python27\\lib\\site-packages\\matplotlib-1.3.1-py2.7-win-amd64.egg\\matplotlib\\mpl-data\\fonts\\pdfcorefonts\\Helvetica-Bold.afm'
p3088
aS'C:\\PROGRA~1\\QGISPI~1\\apps\\Python27\\lib\\site-packages\\matplotlib-1.3.1-py2.7-win-amd64.egg\\matplotlib\\mpl-data\\fonts\\pdfcorefonts\\Helvetica-BoldOblique.afm'
p3089
aS'C:\\PROGRA~1\\QGISPI~1\\apps\\Python27\\lib\\site-packages\\matplotlib-1.3.1-py2.7-win-amd64.egg\\matplotlib\\mpl-data\\fonts\\afm\\pncri8a.afm'
p3090
aS'C:\\PROGRA~1\\QGISPI~1\\apps\\Python27\\lib\\site-packages\\matplotlib-1.3.1-py2.7-win-amd64.egg\\matplotlib\\mpl-data\\fonts\\afm\\pncbi8a.afm'
p3091
aS'C:\\PROGRA~1\\QGISPI~1\\apps\\Python27\\lib\\site-packages\\matplotlib-1.3.1-py2.7-win-amd64.egg\\matplotlib\\mpl-data\\fonts\\afm\\phvbo8a.afm'
p3092
aS'C:\\PROGRA~1\\QGISPI~1\\apps\\Python27\\lib\\site-packages\\matplotlib-1.3.1-py2.7-win-amd64.egg\\matplotlib\\mpl-data\\fonts\\afm\\phvr8an.afm'
p3093
aS'C:\\PROGRA~1\\QGISPI~1\\apps\\Python27\\lib\\site-packages\\matplotlib-1.3.1-py2.7-win-amd64.egg\\matplotlib\\mpl-data\\fonts\\afm\\psyr.afm'
p3094
aS'C:\\PROGRA~1\\QGISPI~1\\apps\\Python27\\lib\\site-packages\\matplotlib-1.3.1-py2.7-win-amd64.egg\\matplotlib\\mpl-data\\fonts\\pdfcorefonts\\Helvetica-Oblique.afm'
p3095
aS'C:\\PROGRA~1\\QGISPI~1\\apps\\Python27\\lib\\site-packages\\matplotlib-1.3.1-py2.7-win-amd64.egg\\matplotlib\\mpl-data\\fonts\\afm\\pagdo8a.afm'
p3096
aS'C:\\PROGRA~1\\QGISPI~1\\apps\\Python27\\lib\\site-packages\\matplotlib-1.3.1-py2.7-win-amd64.egg\\matplotlib\\mpl-data\\fonts\\pdfcorefonts\\Helvetica.afm'
p3097
aS'C:\\PROGRA~1\\QGISPI~1\\apps\\Python27\\lib\\site-packages\\matplotlib-1.3.1-py2.7-win-amd64.egg\\matplotlib\\mpl-data\\fonts\\afm\\pzdr.afm'
p3098
aS'C:\\PROGRA~1\\QGISPI~1\\apps\\Python27\\lib\\site-packages\\matplotlib-1.3.1-py2.7-win-amd64.egg\\matplotlib\\mpl-data\\fonts\\afm\\pncr8a.afm'
p3099
aS'C:\\PROGRA~1\\QGISPI~1\\apps\\Python27\\lib\\site-packages\\matplotlib-1.3.1-py2.7-win-amd64.egg\\matplotlib\\mpl-data\\fonts\\pdfcorefonts\\Courier-BoldOblique.afm'
p3100
asS'afmlist'
p3101
(lp3102
g7
(g8
g9
NtRp3103
(dp3104
g12
g50
sg14
S'Helvetica'
p3105
sg16
I500
sg17
g13
sg18
g13
sg19
g3039
sg21
g22
sbag7
(g8
g9
NtRp3106
(dp3107
g12
g13
sg14
S'ITC Bookman'
p3108
sg16
I600
sg17
g13
sg18
g13
sg19
g3042
sg21
g22
sbag7
(g8
g9
NtRp3109
(dp3110
g12
g50
sg14
S'Palatino'
p3111
sg16
I500
sg17
g13
sg18
g13
sg19
g3043
sg21
g22
sbag7
(g8
g9
NtRp3112
(dp3113
g12
g13
sg14
S'Courier'
p3114
sg16
I700
sg17
g13
sg18
g13
sg19
g3044
sg21
g22
sbag7
(g8
g9
NtRp3115
(dp3116
g12
g50
sg14
S'Courier'
p3117
sg16
I700
sg17
g13
sg18
g13
sg19
g3045
sg21
g22
sbag7
(g8
g9
NtRp3118
(dp3119
g12
g13
sg14
S'Utopia'
p3120
sg16
I700
sg17
g13
sg18
g13
sg19
g3046
sg21
g22
sbag7
(g8
g9
NtRp3121
(dp3122
g12
g50
sg14
S'ITC Bookman'
p3123
sg16
I600
sg17
g13
sg18
g13
sg19
g3047
sg21
g22
sbag7
(g8
g9
NtRp3124
(dp3125
g12
g13
sg14
S'Helvetica'
p3126
sg16
I500
sg17
g13
sg18
g13
sg19
g3048
sg21
g22
sbag7
(g8
g9
NtRp3127
(dp3128
g12
g13
sg14
S'ITC Avant Garde Gothic'
p3129
sg16
I400
sg17
g13
sg18
g13
sg19
g3049
sg21
g22
sbag7
(g8
g9
NtRp3130
(dp3131
g12
g13
sg14
S'Computer Modern'
p3132
sg16
I500
sg17
g13
sg18
g13
sg19
g3050
sg21
g22
sbag7
(g8
g9
NtRp3133
(dp3134
g12
g50
sg14
S'Utopia'
p3135
sg16
I700
sg17
g13
sg18
g13
sg19
g3051
sg21
g22
sbag7
(g8
g9
NtRp3136
(dp3137
g12
g13
sg14
S'Times'
p3138
sg16
I700
sg17
g13
sg18
g13
sg19
g3052
sg21
g22
sbag7
(g8
g9
NtRp3139
(dp3140
g12
g13
sg14
S'Symbol'
p3141
sg16
I500
sg17
g13
sg18
g13
sg19
g3053
sg21
g22
sbag7
(g8
g9
NtRp3142
(dp3143
g12
g50
sg14
S'Times'
p3144
sg16
I700
sg17
g13
sg18
g13
sg19
g3054
sg21
g22
sbag7
(g8
g9
NtRp3145
(dp3146
g12
g13
sg14
S'Helvetica'
p3147
sg16
I700
sg17
g13
sg18
g13
sg19
g3055
sg21
g22
sbag7
(g8
g9
NtRp3148
(dp3149
g12
g13
sg14
S'Times'
p3150
sg16
I500
sg17
g13
sg18
g13
sg19
g3056
sg21
g22
sbag7
(g8
g9
NtRp3151
(dp3152
g12
g13
sg14
S'Courier'
p3153
sg16
I500
sg17
g13
sg18
g13
sg19
g3057
sg21
g22
sbag7
(g8
g9
NtRp3154
(dp3155
g12
g13
sg14
S'Courier'
p3156
sg16
I500
sg17
g13
sg18
g13
sg19
g3058
sg21
g22
sbag7
(g8
g9
NtRp3157
(dp3158
g12
g50
sg14
S'Courier'
p3159
sg16
I500
sg17
g13
sg18
g13
sg19
g3059
sg21
g22
sbag7
(g8
g9
NtRp3160
(dp3161
g12
g50
sg14
S'Times'
p3162
sg16
I500
sg17
g13
sg18
g13
sg19
g3060
sg21
g22
sbag7
(g8
g9
NtRp3163
(dp3164
g12
g50
sg14
S'Times'
p3165
sg16
I700
sg17
g13
sg18
g13
sg19
g3061
sg21
g22
sbag7
(g8
g9
NtRp3166
(dp3167
g12
g50
sg14
S'Palatino'
p3168
sg16
I700
sg17
g13
sg18
g13
sg19
g3062
sg21
g22
sbag7
(g8
g9
NtRp3169
(dp3170
g12
g13
sg14
S'Computer Modern'
p3171
sg16
I500
sg17
g13
sg18
g13
sg19
g3063
sg21
g22
sbag7
(g8
g9
NtRp3172
(dp3173
g12
g50
sg14
S'Courier'
p3174
sg16
I500
sg17
g13
sg18
g13
sg19
g3064
sg21
g22
sbag7
(g8
g9
NtRp3175
(dp3176
g12
g50
sg14
S'ITC Zapf Chancery'
p3177
sg16
I500
sg17
g13
sg18
g13
sg19
g3065
sg21
g22
sbag7
(g8
g9
NtRp3178
(dp3179
g12
g50
sg14
S'ITC Avant Garde Gothic'
p3180
sg16
I400
sg17
g13
sg18
g13
sg19
g3066
sg21
g22
sbag7
(g8
g9
NtRp3181
(dp3182
g12
g13
sg14
S'Times'
p3183
sg16
I500
sg17
g13
sg18
g13
sg19
g3067
sg21
g22
sbag7
(g8
g9
NtRp3184
(dp3185
g12
g50
sg14
S'Times'
p3186
sg16
I500
sg17
g13
sg18
g13
sg19
g3068
sg21
g22
sbag7
(g8
g9
NtRp3187
(dp3188
g12
g13
sg14
S'Utopia'
p3189
sg16
I400
sg17
g13
sg18
g13
sg19
g3069
sg21
g22
sbag7
(g8
g9
NtRp3190
(dp3191
g12
g13
sg14
S'Palatino'
p3192
sg16
I500
sg17
g13
sg18
g13
sg19
g3070
sg21
g22
sbag7
(g8
g9
NtRp3193
(dp3194
g12
g50
sg14
S'Utopia'
p3195
sg16
I400
sg17
g13
sg18
g13
sg19
g3071
sg21
g22
sbag7
(g8
g9
NtRp3196
(dp3197
g12
g50
sg14
S'Helvetica'
p3198
sg16
I700
sg17
g232
sg18
g13
sg19
g3072
sg21
g22
sbag7
(g8
g9
NtRp3199
(dp3200
g12
g13
sg14
S'Courier'
p3201
sg16
I700
sg17
g13
sg18
g13
sg19
g3073
sg21
g22
sbag7
(g8
g9
NtRp3202
(dp3203
g12
g13
sg14
S'New Century Schoolbook'
p3204
sg16
I700
sg17
g13
sg18
g13
sg19
g3074
sg21
g22
sbag7
(g8
g9
NtRp3205
(dp3206
g12
g13
sg14
S'Palatino'
p3207
sg16
I700
sg17
g13
sg18
g13
sg19
g3075
sg21
g22
sbag7
(g8
g9
NtRp3208
(dp3209
g12
g13
sg14
S'ZapfDingbats'
p3210
sg16
I500
sg17
g13
sg18
g13
sg19
g3076
sg21
g22
sbag7
(g8
g9
NtRp3211
(dp3212
g12
g13
sg14
S'Times'
p3213
sg16
I700
sg17
g13
sg18
g13
sg19
g3077
sg21
g22
sbag7
(g8
g9
NtRp3214
(dp3215
g12
g50
sg14
S'Computer Modern'
p3216
sg16
I500
sg17
g13
sg18
g13
sg19
g3078
sg21
g22
sbag7
(g8
g9
NtRp3217
(dp3218
g12
g13
sg14
S'Helvetica'
p3219
sg16
I200
sg17
g13
sg18
g13
sg19
g3079
sg21
g22
sbag7
(g8
g9
NtRp3220
(dp3221
g12
g50
sg14
S'Computer Modern'
p3222
sg16
I500
sg17
g13
sg18
g13
sg19
g3080
sg21
g22
sbag7
(g8
g9
NtRp3223
(dp3224
g12
g13
sg14
S'ITC Bookman'
p3225
sg16
I200
sg17
g13
sg18
g13
sg19
g3081
sg21
g22
sbag7
(g8
g9
NtRp3226
(dp3227
g12
g13
sg14
S'Helvetica'
p3228
sg16
I700
sg17
g232
sg18
g13
sg19
g3082
sg21
g22
sbag7
(g8
g9
NtRp3229
(dp3230
g12
g50
sg14
S'Helvetica'
p3231
sg16
I200
sg17
g13
sg18
g13
sg19
g3083
sg21
g22
sbag7
(g8
g9
NtRp3232
(dp3233
g12
g13
sg14
S'Computer Modern'
p3234
sg16
I500
sg17
g13
sg18
g13
sg19
g3084
sg21
g22
sbag7
(g8
g9
NtRp3235
(dp3236
g12
g50
sg14
S'ITC Bookman'
p3237
sg16
I200
sg17
g13
sg18
g13
sg19
g3085
sg21
g22
sbag7
(g8
g9
NtRp3238
(dp3239
g12
g13
sg14
S'ITC Avant Garde Gothic'
p3240
sg16
I600
sg17
g13
sg18
g13
sg19
g3086
sg21
g22
sbag7
(g8
g9
NtRp3241
(dp3242
g12
g50
sg14
S'Helvetica'
p3243
sg16
I500
sg17
g232
sg18
g13
sg19
g3087
sg21
g22
sbag7
(g8
g9
NtRp3244
(dp3245
g12
g13
sg14
S'Helvetica'
p3246
sg16
I700
sg17
g13
sg18
g13
sg19
g3088
sg21
g22
sbag7
(g8
g9
NtRp3247
(dp3248
g12
g50
sg14
S'Helvetica'
p3249
sg16
I700
sg17
g13
sg18
g13
sg19
g3089
sg21
g22
sbag7
(g8
g9
NtRp3250
(dp3251
g12
g50
sg14
S'New Century Schoolbook'
p3252
sg16
I500
sg17
g13
sg18
g13
sg19
g3090
sg21
g22
sbag7
(g8
g9
NtRp3253
(dp3254
g12
g50
sg14
S'New Century Schoolbook'
p3255
sg16
I700
sg17
g13
sg18
g13
sg19
g3091
sg21
g22
sbag7
(g8
g9
NtRp3256
(dp3257
g12
g50
sg14
S'Helvetica'
p3258
sg16
I700
sg17
g13
sg18
g13
sg19
g3092
sg21
g22
sbag7
(g8
g9
NtRp3259
(dp3260
g12
g13
sg14
S'Helvetica'
p3261
sg16
I500
sg17
g232
sg18
g13
sg19
g3093
sg21
g22
sbag7
(g8
g9
NtRp3262
(dp3263
g12
g13
sg14
S'Symbol'
p3264
sg16
I500
sg17
g13
sg18
g13
sg19
g3094
sg21
g22
sbag7
(g8
g9
NtRp3265
(dp3266
g12
g50
sg14
S'Helvetica'
p3267
sg16
I500
sg17
g13
sg18
g13
sg19
g3095
sg21
g22
sbag7
(g8
g9
NtRp3268
(dp3269
g12
g50
sg14
S'ITC Avant Garde Gothic'
p3270
sg16
I600
sg17
g13
sg18
g13
sg19
g3096
sg21
g22
sbag7
(g8
g9
NtRp3271
(dp3272
g12
g13
sg14
S'Helvetica'
p3273
sg16
I500
sg17
g13
sg18
g13
sg19
g3097
sg21
g22
sbag7
(g8
g9
NtRp3274
(dp3275
g12
g13
sg14
S'ITC Zapf Dingbats'
p3276
sg16
I500
sg17
g13
sg18
g13
sg19
g3098
sg21
g22
sbag7
(g8
g9
NtRp3277
(dp3278
g12
g13
sg14
S'New Century Schoolbook'
p3279
sg16
I500
sg17
g13
sg18
g13
sg19
g3099
sg21
g22
sbag7
(g8
g9
NtRp3280
(dp3281
g12
g50
sg14
S'Courier'
p3282
sg16
I700
sg17
g13
sg18
g13
sg19
g3100
sg21
g22
sbasb.